ARM GAS  C:\Users\ericz\AppData\Local\Temp\ccNBdFy5.s 			page 1


   1              		.syntax unified
   2              		.cpu cortex-m3
   3              		.fpu softvfp
   4              		.eabi_attribute 20, 1
   5              		.eabi_attribute 21, 1
   6              		.eabi_attribute 23, 3
   7              		.eabi_attribute 24, 1
   8              		.eabi_attribute 25, 1
   9              		.eabi_attribute 26, 1
  10              		.eabi_attribute 30, 1
  11              		.eabi_attribute 34, 1
  12              		.eabi_attribute 18, 4
  13              		.thumb
  14              		.file	"dma_util.c"
  15              		.text
  16              	.Ltext0:
  17              		.cfi_sections	.debug_frame
  18              		.section	.text.DMA_0_Complete_Handler,"ax",%progbits
  19              		.align	2
  20              		.global	DMA_0_Complete_Handler
  21              		.thumb
  22              		.thumb_func
  23              		.type	DMA_0_Complete_Handler, %function
  24              	DMA_0_Complete_Handler:
  25              	.LFB63:
  26              		.file 1 ".\\dma_util.c"
   1:.\dma_util.c  **** 
   2:.\dma_util.c  **** #include <project.h>
   3:.\dma_util.c  **** #include "dma_util.h"
   4:.\dma_util.c  **** 
   5:.\dma_util.c  **** //==============================================================
   6:.\dma_util.c  **** // Setup
   7:.\dma_util.c  **** //==============================================================
   8:.\dma_util.c  **** 
   9:.\dma_util.c  **** // declare the DMA channels and TDs
  10:.\dma_util.c  **** static uint8 DMA_Chan_0;
  11:.\dma_util.c  **** static uint8 DMA_TD_0;
  12:.\dma_util.c  **** static uint8 DMA_Chan_1;
  13:.\dma_util.c  **** static uint8 DMA_TD_1;
  14:.\dma_util.c  **** static uint8 DMA_Chan_2;
  15:.\dma_util.c  **** static uint8 DMA_TD_2;
  16:.\dma_util.c  **** static uint8 DMA_Chan_3;
  17:.\dma_util.c  **** static uint8 DMA_TD_3;
  18:.\dma_util.c  **** 
  19:.\dma_util.c  **** // declare DMA interrupt service routines
  20:.\dma_util.c  **** CY_ISR_PROTO(DMA_0_Complete_Handler);
  21:.\dma_util.c  **** CY_ISR_PROTO(DMA_1_Complete_Handler);
  22:.\dma_util.c  **** CY_ISR_PROTO(DMA_2_Complete_Handler);
  23:.\dma_util.c  **** CY_ISR_PROTO(DMA_3_Complete_Handler);
  24:.\dma_util.c  **** 
  25:.\dma_util.c  **** // define DMA ping-pong buffers (extern-declared in dma_util.h)
  26:.\dma_util.c  **** uint8 bufferA_0[BUF_SIZE];
  27:.\dma_util.c  **** uint8 bufferB_0[BUF_SIZE];
  28:.\dma_util.c  **** uint8 bufferA_1[BUF_SIZE];
  29:.\dma_util.c  **** uint8 bufferB_1[BUF_SIZE];
  30:.\dma_util.c  **** uint8 bufferA_2[BUF_SIZE];
  31:.\dma_util.c  **** uint8 bufferB_2[BUF_SIZE];
ARM GAS  C:\Users\ericz\AppData\Local\Temp\ccNBdFy5.s 			page 2


  32:.\dma_util.c  **** uint8 bufferA_3[BUF_SIZE];
  33:.\dma_util.c  **** uint8 bufferB_3[BUF_SIZE];
  34:.\dma_util.c  **** 
  35:.\dma_util.c  **** // define DMA busy flags (extern-declared in dma_util.h)
  36:.\dma_util.c  **** volatile uint8 isDmaBusy_0 = 0;
  37:.\dma_util.c  **** volatile uint8 isDmaBusy_1 = 0;
  38:.\dma_util.c  **** volatile uint8 isDmaBusy_2 = 0;
  39:.\dma_util.c  **** volatile uint8 isDmaBusy_3 = 0;
  40:.\dma_util.c  **** 
  41:.\dma_util.c  **** // define interrupt service routines
  42:.\dma_util.c  **** CY_ISR(DMA_0_Complete_Handler)
  43:.\dma_util.c  **** {
  27              		.loc 1 43 0
  28              		.cfi_startproc
  29              		@ args = 0, pretend = 0, frame = 0
  30              		@ frame_needed = 0, uses_anonymous_args = 0
  31              		@ link register save eliminated.
  44:.\dma_util.c  ****     isDmaBusy_0 = 0; 
  32              		.loc 1 44 0
  33 0000 0022     		movs	r2, #0
  34 0002 014B     		ldr	r3, .L2
  35 0004 1A70     		strb	r2, [r3]
  36 0006 7047     		bx	lr
  37              	.L3:
  38              		.align	2
  39              	.L2:
  40 0008 00000000 		.word	.LANCHOR0
  41              		.cfi_endproc
  42              	.LFE63:
  43              		.size	DMA_0_Complete_Handler, .-DMA_0_Complete_Handler
  44              		.section	.text.DMA_1_Complete_Handler,"ax",%progbits
  45              		.align	2
  46              		.global	DMA_1_Complete_Handler
  47              		.thumb
  48              		.thumb_func
  49              		.type	DMA_1_Complete_Handler, %function
  50              	DMA_1_Complete_Handler:
  51              	.LFB64:
  45:.\dma_util.c  **** }
  46:.\dma_util.c  **** 
  47:.\dma_util.c  **** CY_ISR(DMA_1_Complete_Handler)
  48:.\dma_util.c  **** {
  52              		.loc 1 48 0
  53              		.cfi_startproc
  54              		@ args = 0, pretend = 0, frame = 0
  55              		@ frame_needed = 0, uses_anonymous_args = 0
  56              		@ link register save eliminated.
  49:.\dma_util.c  ****     isDmaBusy_1 = 0; 
  57              		.loc 1 49 0
  58 0000 0022     		movs	r2, #0
  59 0002 014B     		ldr	r3, .L5
  60 0004 5A70     		strb	r2, [r3, #1]
  61 0006 7047     		bx	lr
  62              	.L6:
  63              		.align	2
  64              	.L5:
  65 0008 00000000 		.word	.LANCHOR0
ARM GAS  C:\Users\ericz\AppData\Local\Temp\ccNBdFy5.s 			page 3


  66              		.cfi_endproc
  67              	.LFE64:
  68              		.size	DMA_1_Complete_Handler, .-DMA_1_Complete_Handler
  69              		.section	.text.DMA_2_Complete_Handler,"ax",%progbits
  70              		.align	2
  71              		.global	DMA_2_Complete_Handler
  72              		.thumb
  73              		.thumb_func
  74              		.type	DMA_2_Complete_Handler, %function
  75              	DMA_2_Complete_Handler:
  76              	.LFB65:
  50:.\dma_util.c  **** }
  51:.\dma_util.c  **** 
  52:.\dma_util.c  **** CY_ISR(DMA_2_Complete_Handler)
  53:.\dma_util.c  **** {
  77              		.loc 1 53 0
  78              		.cfi_startproc
  79              		@ args = 0, pretend = 0, frame = 0
  80              		@ frame_needed = 0, uses_anonymous_args = 0
  81              		@ link register save eliminated.
  54:.\dma_util.c  ****     isDmaBusy_2 = 0; 
  82              		.loc 1 54 0
  83 0000 0022     		movs	r2, #0
  84 0002 014B     		ldr	r3, .L8
  85 0004 9A70     		strb	r2, [r3, #2]
  86 0006 7047     		bx	lr
  87              	.L9:
  88              		.align	2
  89              	.L8:
  90 0008 00000000 		.word	.LANCHOR0
  91              		.cfi_endproc
  92              	.LFE65:
  93              		.size	DMA_2_Complete_Handler, .-DMA_2_Complete_Handler
  94              		.section	.text.DMA_3_Complete_Handler,"ax",%progbits
  95              		.align	2
  96              		.global	DMA_3_Complete_Handler
  97              		.thumb
  98              		.thumb_func
  99              		.type	DMA_3_Complete_Handler, %function
 100              	DMA_3_Complete_Handler:
 101              	.LFB66:
  55:.\dma_util.c  **** }
  56:.\dma_util.c  **** 
  57:.\dma_util.c  **** CY_ISR(DMA_3_Complete_Handler)
  58:.\dma_util.c  **** {
 102              		.loc 1 58 0
 103              		.cfi_startproc
 104              		@ args = 0, pretend = 0, frame = 0
 105              		@ frame_needed = 0, uses_anonymous_args = 0
 106              		@ link register save eliminated.
  59:.\dma_util.c  ****     isDmaBusy_3 = 0; 
 107              		.loc 1 59 0
 108 0000 0022     		movs	r2, #0
 109 0002 014B     		ldr	r3, .L11
 110 0004 DA70     		strb	r2, [r3, #3]
 111 0006 7047     		bx	lr
 112              	.L12:
ARM GAS  C:\Users\ericz\AppData\Local\Temp\ccNBdFy5.s 			page 4


 113              		.align	2
 114              	.L11:
 115 0008 00000000 		.word	.LANCHOR0
 116              		.cfi_endproc
 117              	.LFE66:
 118              		.size	DMA_3_Complete_Handler, .-DMA_3_Complete_Handler
 119              		.section	.text.Init_DMA_SPI,"ax",%progbits
 120              		.align	2
 121              		.global	Init_DMA_SPI
 122              		.thumb
 123              		.thumb_func
 124              		.type	Init_DMA_SPI, %function
 125              	Init_DMA_SPI:
 126              	.LFB67:
  60:.\dma_util.c  **** }
  61:.\dma_util.c  **** 
  62:.\dma_util.c  **** 
  63:.\dma_util.c  **** 
  64:.\dma_util.c  **** //==============================================================
  65:.\dma_util.c  **** // Init_DMA_SPI
  66:.\dma_util.c  **** // initialize DMA for talking to SPI
  67:.\dma_util.c  **** //==============================================================
  68:.\dma_util.c  **** void Init_DMA_SPI(uint8 disp)
  69:.\dma_util.c  **** {
 127              		.loc 1 69 0
 128              		.cfi_startproc
 129              		@ args = 0, pretend = 0, frame = 0
 130              		@ frame_needed = 0, uses_anonymous_args = 0
 131              	.LVL0:
 132 0000 10B5     		push	{r4, lr}
 133              		.cfi_def_cfa_offset 8
 134              		.cfi_offset 4, -8
 135              		.cfi_offset 14, -4
  70:.\dma_util.c  ****     switch (disp) 
 136              		.loc 1 70 0
 137 0002 0328     		cmp	r0, #3
 138 0004 72D8     		bhi	.L13
 139 0006 DFE800F0 		tbb	[pc, r0]
 140              	.L16:
 141 000a 02       		.byte	(.L15-.L16)/2
 142 000b 1E       		.byte	(.L17-.L16)/2
 143 000c 3A       		.byte	(.L18-.L16)/2
 144 000d 56       		.byte	(.L19-.L16)/2
 145              		.p2align 1
 146              	.L15:
  71:.\dma_util.c  ****     {
  72:.\dma_util.c  ****         case 0:
  73:.\dma_util.c  ****             DMA_Chan_0 = DMA_0_DmaInitialize(1, 1, HI16(CYDEV_SRAM_BASE), HI16(CYDEV_PERIPH_BASE));
 147              		.loc 1 73 0
 148 000e 0120     		movs	r0, #1
 149              	.LVL1:
 150 0010 0146     		mov	r1, r0
 151 0012 41F6FF72 		movw	r2, #8191
 152 0016 4FF48043 		mov	r3, #16384
 153 001a FFF7FEFF 		bl	DMA_0_DmaInitialize
 154              	.LVL2:
 155 001e 344C     		ldr	r4, .L21
ARM GAS  C:\Users\ericz\AppData\Local\Temp\ccNBdFy5.s 			page 5


 156 0020 2071     		strb	r0, [r4, #4]
  74:.\dma_util.c  ****             DMA_TD_0 = CyDmaTdAllocate();
 157              		.loc 1 74 0
 158 0022 FFF7FEFF 		bl	CyDmaTdAllocate
 159              	.LVL3:
 160 0026 6071     		strb	r0, [r4, #5]
  75:.\dma_util.c  ****             CyDmaTdSetConfiguration(DMA_TD_0,
 161              		.loc 1 75 0
 162 0028 0121     		movs	r1, #1
 163 002a FE22     		movs	r2, #254
 164 002c 0523     		movs	r3, #5
 165 002e FFF7FEFF 		bl	CyDmaTdSetConfiguration
 166              	.LVL4:
  76:.\dma_util.c  ****                 1,
  77:.\dma_util.c  ****                 CY_DMA_DISABLE_TD, 
  78:.\dma_util.c  ****                 CY_DMA_TD_INC_SRC_ADR | DMA_0__TD_TERMOUT_EN);
  79:.\dma_util.c  ****             CyDmaTdSetAddress(DMA_TD_0, 0, LO16((uint32)SPIM_0_TXDATA_PTR));
 167              		.loc 1 79 0
 168 0032 6079     		ldrb	r0, [r4, #5]	@ zero_extendqisi2
 169 0034 0021     		movs	r1, #0
 170 0036 46F24452 		movw	r2, #25924
 171 003a FFF7FEFF 		bl	CyDmaTdSetAddress
 172              	.LVL5:
  80:.\dma_util.c  ****             DMA_Complete_ISR_0_StartEx(DMA_0_Complete_Handler);
 173              		.loc 1 80 0
 174 003e 2D48     		ldr	r0, .L21+4
 175 0040 FFF7FEFF 		bl	DMA_Complete_ISR_0_StartEx
 176              	.LVL6:
  81:.\dma_util.c  ****             break;
 177              		.loc 1 81 0
 178 0044 10BD     		pop	{r4, pc}
 179              	.LVL7:
 180              	.L17:
  82:.\dma_util.c  ****         case 1:
  83:.\dma_util.c  ****             DMA_Chan_1 = DMA_1_DmaInitialize(1, 1, HI16(CYDEV_SRAM_BASE), HI16(CYDEV_PERIPH_BASE));
 181              		.loc 1 83 0
 182 0046 0120     		movs	r0, #1
 183              	.LVL8:
 184 0048 0146     		mov	r1, r0
 185 004a 41F6FF72 		movw	r2, #8191
 186 004e 4FF48043 		mov	r3, #16384
 187 0052 FFF7FEFF 		bl	DMA_1_DmaInitialize
 188              	.LVL9:
 189 0056 264C     		ldr	r4, .L21
 190 0058 A071     		strb	r0, [r4, #6]
  84:.\dma_util.c  ****             DMA_TD_1 = CyDmaTdAllocate();
 191              		.loc 1 84 0
 192 005a FFF7FEFF 		bl	CyDmaTdAllocate
 193              	.LVL10:
 194 005e E071     		strb	r0, [r4, #7]
  85:.\dma_util.c  ****             CyDmaTdSetConfiguration(DMA_TD_1, 
 195              		.loc 1 85 0
 196 0060 0121     		movs	r1, #1
 197 0062 FE22     		movs	r2, #254
 198 0064 0523     		movs	r3, #5
 199 0066 FFF7FEFF 		bl	CyDmaTdSetConfiguration
 200              	.LVL11:
ARM GAS  C:\Users\ericz\AppData\Local\Temp\ccNBdFy5.s 			page 6


  86:.\dma_util.c  ****                 1,
  87:.\dma_util.c  ****                 CY_DMA_DISABLE_TD, 
  88:.\dma_util.c  ****                 CY_DMA_TD_INC_SRC_ADR | DMA_1__TD_TERMOUT_EN);
  89:.\dma_util.c  ****             CyDmaTdSetAddress(DMA_TD_1, 0, LO16((uint32)SPIM_1_TXDATA_PTR));
 201              		.loc 1 89 0
 202 006a E079     		ldrb	r0, [r4, #7]	@ zero_extendqisi2
 203 006c 0021     		movs	r1, #0
 204 006e 46F24142 		movw	r2, #25665
 205 0072 FFF7FEFF 		bl	CyDmaTdSetAddress
 206              	.LVL12:
  90:.\dma_util.c  ****             DMA_Complete_ISR_1_StartEx(DMA_1_Complete_Handler);
 207              		.loc 1 90 0
 208 0076 2048     		ldr	r0, .L21+8
 209 0078 FFF7FEFF 		bl	DMA_Complete_ISR_1_StartEx
 210              	.LVL13:
  91:.\dma_util.c  ****             break;
 211              		.loc 1 91 0
 212 007c 10BD     		pop	{r4, pc}
 213              	.LVL14:
 214              	.L18:
  92:.\dma_util.c  ****         case 2:
  93:.\dma_util.c  ****             DMA_Chan_2 = DMA_2_DmaInitialize(1, 1, HI16(CYDEV_SRAM_BASE), HI16(CYDEV_PERIPH_BASE));
 215              		.loc 1 93 0
 216 007e 0120     		movs	r0, #1
 217              	.LVL15:
 218 0080 0146     		mov	r1, r0
 219 0082 41F6FF72 		movw	r2, #8191
 220 0086 4FF48043 		mov	r3, #16384
 221 008a FFF7FEFF 		bl	DMA_2_DmaInitialize
 222              	.LVL16:
 223 008e 184C     		ldr	r4, .L21
 224 0090 2072     		strb	r0, [r4, #8]
  94:.\dma_util.c  ****             DMA_TD_2 = CyDmaTdAllocate();
 225              		.loc 1 94 0
 226 0092 FFF7FEFF 		bl	CyDmaTdAllocate
 227              	.LVL17:
 228 0096 6072     		strb	r0, [r4, #9]
  95:.\dma_util.c  ****             CyDmaTdSetConfiguration(DMA_TD_2,
 229              		.loc 1 95 0
 230 0098 0121     		movs	r1, #1
 231 009a FE22     		movs	r2, #254
 232 009c 0523     		movs	r3, #5
 233 009e FFF7FEFF 		bl	CyDmaTdSetConfiguration
 234              	.LVL18:
  96:.\dma_util.c  ****                 1,
  97:.\dma_util.c  ****                 CY_DMA_DISABLE_TD, 
  98:.\dma_util.c  ****                 CY_DMA_TD_INC_SRC_ADR | DMA_2__TD_TERMOUT_EN);
  99:.\dma_util.c  ****             CyDmaTdSetAddress(DMA_TD_2, 0, LO16((uint32)SPIM_2_TXDATA_PTR));
 235              		.loc 1 99 0
 236 00a2 607A     		ldrb	r0, [r4, #9]	@ zero_extendqisi2
 237 00a4 0021     		movs	r1, #0
 238 00a6 46F24A52 		movw	r2, #25930
 239 00aa FFF7FEFF 		bl	CyDmaTdSetAddress
 240              	.LVL19:
 100:.\dma_util.c  ****             DMA_Complete_ISR_2_StartEx(DMA_2_Complete_Handler);
 241              		.loc 1 100 0
 242 00ae 1348     		ldr	r0, .L21+12
ARM GAS  C:\Users\ericz\AppData\Local\Temp\ccNBdFy5.s 			page 7


 243 00b0 FFF7FEFF 		bl	DMA_Complete_ISR_2_StartEx
 244              	.LVL20:
 101:.\dma_util.c  ****             break;
 245              		.loc 1 101 0
 246 00b4 10BD     		pop	{r4, pc}
 247              	.LVL21:
 248              	.L19:
 102:.\dma_util.c  ****         case 3:
 103:.\dma_util.c  ****             DMA_Chan_3 = DMA_3_DmaInitialize(1, 1, HI16(CYDEV_SRAM_BASE), HI16(CYDEV_PERIPH_BASE));
 249              		.loc 1 103 0
 250 00b6 0120     		movs	r0, #1
 251              	.LVL22:
 252 00b8 0146     		mov	r1, r0
 253 00ba 41F6FF72 		movw	r2, #8191
 254 00be 4FF48043 		mov	r3, #16384
 255 00c2 FFF7FEFF 		bl	DMA_3_DmaInitialize
 256              	.LVL23:
 257 00c6 0A4C     		ldr	r4, .L21
 258 00c8 A072     		strb	r0, [r4, #10]
 104:.\dma_util.c  ****             DMA_TD_3 = CyDmaTdAllocate();
 259              		.loc 1 104 0
 260 00ca FFF7FEFF 		bl	CyDmaTdAllocate
 261              	.LVL24:
 262 00ce E072     		strb	r0, [r4, #11]
 105:.\dma_util.c  ****             CyDmaTdSetConfiguration(DMA_TD_3, 
 263              		.loc 1 105 0
 264 00d0 0121     		movs	r1, #1
 265 00d2 FE22     		movs	r2, #254
 266 00d4 0523     		movs	r3, #5
 267 00d6 FFF7FEFF 		bl	CyDmaTdSetConfiguration
 268              	.LVL25:
 106:.\dma_util.c  ****                 1,
 107:.\dma_util.c  ****                 CY_DMA_DISABLE_TD, 
 108:.\dma_util.c  ****                 CY_DMA_TD_INC_SRC_ADR | DMA_3__TD_TERMOUT_EN);
 109:.\dma_util.c  ****             CyDmaTdSetAddress(DMA_TD_3, 0, LO16((uint32)SPIM_3_TXDATA_PTR));
 269              		.loc 1 109 0
 270 00da E07A     		ldrb	r0, [r4, #11]	@ zero_extendqisi2
 271 00dc 0021     		movs	r1, #0
 272 00de 46F24242 		movw	r2, #25666
 273 00e2 FFF7FEFF 		bl	CyDmaTdSetAddress
 274              	.LVL26:
 110:.\dma_util.c  ****             DMA_Complete_ISR_3_StartEx(DMA_3_Complete_Handler);
 275              		.loc 1 110 0
 276 00e6 0648     		ldr	r0, .L21+16
 277 00e8 FFF7FEFF 		bl	DMA_Complete_ISR_3_StartEx
 278              	.LVL27:
 279              	.L13:
 280 00ec 10BD     		pop	{r4, pc}
 281              	.L22:
 282 00ee 00BF     		.align	2
 283              	.L21:
 284 00f0 00000000 		.word	.LANCHOR0
 285 00f4 00000000 		.word	DMA_0_Complete_Handler
 286 00f8 00000000 		.word	DMA_1_Complete_Handler
 287 00fc 00000000 		.word	DMA_2_Complete_Handler
 288 0100 00000000 		.word	DMA_3_Complete_Handler
 289              		.cfi_endproc
ARM GAS  C:\Users\ericz\AppData\Local\Temp\ccNBdFy5.s 			page 8


 290              	.LFE67:
 291              		.size	Init_DMA_SPI, .-Init_DMA_SPI
 292              		.section	.text.DMA_Feed_SPI_Async,"ax",%progbits
 293              		.align	2
 294              		.global	DMA_Feed_SPI_Async
 295              		.thumb
 296              		.thumb_func
 297              		.type	DMA_Feed_SPI_Async, %function
 298              	DMA_Feed_SPI_Async:
 299              	.LFB68:
 111:.\dma_util.c  ****             break;
 112:.\dma_util.c  ****     }
 113:.\dma_util.c  **** }
 114:.\dma_util.c  **** 
 115:.\dma_util.c  **** 
 116:.\dma_util.c  **** //==============================================================
 117:.\dma_util.c  **** // DMA_Feed_SPI_Async
 118:.\dma_util.c  **** // feed data into DMA to load into SPI
 119:.\dma_util.c  **** //==============================================================
 120:.\dma_util.c  **** void DMA_Feed_SPI_Async(uint8 disp, uint8 *pData, uint16 length)
 121:.\dma_util.c  **** {
 300              		.loc 1 121 0
 301              		.cfi_startproc
 302              		@ args = 0, pretend = 0, frame = 0
 303              		@ frame_needed = 0, uses_anonymous_args = 0
 304              	.LVL28:
 305 0000 70B5     		push	{r4, r5, r6, lr}
 306              		.cfi_def_cfa_offset 16
 307              		.cfi_offset 4, -16
 308              		.cfi_offset 5, -12
 309              		.cfi_offset 6, -8
 310              		.cfi_offset 14, -4
 311 0002 0C46     		mov	r4, r1
 122:.\dma_util.c  ****     switch (disp)
 312              		.loc 1 122 0
 313 0004 0328     		cmp	r0, #3
 314 0006 62D8     		bhi	.L23
 315 0008 DFE800F0 		tbb	[pc, r0]
 316              	.L26:
 317 000c 02       		.byte	(.L25-.L26)/2
 318 000d 1A       		.byte	(.L27-.L26)/2
 319 000e 32       		.byte	(.L28-.L26)/2
 320 000f 4A       		.byte	(.L29-.L26)/2
 321              		.p2align 1
 322              	.L25:
 123:.\dma_util.c  ****     {
 124:.\dma_util.c  ****         case 0:
 125:.\dma_util.c  ****             isDmaBusy_0 = 1;
 323              		.loc 1 125 0
 324 0010 2F4D     		ldr	r5, .L31
 325 0012 0126     		movs	r6, #1
 326 0014 2E70     		strb	r6, [r5]
 126:.\dma_util.c  ****             CyDmaTdSetConfiguration(DMA_TD_0, length, CY_DMA_DISABLE_TD, 
 327              		.loc 1 126 0
 328 0016 6879     		ldrb	r0, [r5, #5]	@ zero_extendqisi2
 329              	.LVL29:
 330 0018 1146     		mov	r1, r2
ARM GAS  C:\Users\ericz\AppData\Local\Temp\ccNBdFy5.s 			page 9


 331              	.LVL30:
 332 001a FE22     		movs	r2, #254
 333              	.LVL31:
 334 001c 0523     		movs	r3, #5
 335 001e FFF7FEFF 		bl	CyDmaTdSetConfiguration
 336              	.LVL32:
 127:.\dma_util.c  ****                 CY_DMA_TD_INC_SRC_ADR | DMA_0__TD_TERMOUT_EN);
 128:.\dma_util.c  ****             CyDmaTdSetAddress(DMA_TD_0, LO16((uint32)pData), LO16((uint32)SPIM_0_TXDATA_PTR));
 337              		.loc 1 128 0
 338 0022 6879     		ldrb	r0, [r5, #5]	@ zero_extendqisi2
 339 0024 A1B2     		uxth	r1, r4
 340 0026 46F24452 		movw	r2, #25924
 341 002a FFF7FEFF 		bl	CyDmaTdSetAddress
 342              	.LVL33:
 129:.\dma_util.c  ****             CyDmaChSetInitialTd(DMA_Chan_0, DMA_TD_0);
 343              		.loc 1 129 0
 344 002e 2879     		ldrb	r0, [r5, #4]	@ zero_extendqisi2
 345 0030 6979     		ldrb	r1, [r5, #5]	@ zero_extendqisi2
 346 0032 FFF7FEFF 		bl	CyDmaChSetInitialTd
 347              	.LVL34:
 130:.\dma_util.c  ****             CyDmaChEnable(DMA_Chan_0, 1);
 348              		.loc 1 130 0
 349 0036 2879     		ldrb	r0, [r5, #4]	@ zero_extendqisi2
 350 0038 3146     		mov	r1, r6
 351 003a FFF7FEFF 		bl	CyDmaChEnable
 352              	.LVL35:
 131:.\dma_util.c  ****             break;
 353              		.loc 1 131 0
 354 003e 70BD     		pop	{r4, r5, r6, pc}
 355              	.LVL36:
 356              	.L27:
 132:.\dma_util.c  ****         case 1:
 133:.\dma_util.c  ****             isDmaBusy_1 = 1;
 357              		.loc 1 133 0
 358 0040 234D     		ldr	r5, .L31
 359 0042 0126     		movs	r6, #1
 360 0044 6E70     		strb	r6, [r5, #1]
 134:.\dma_util.c  ****             CyDmaTdSetConfiguration(DMA_TD_1, length, CY_DMA_DISABLE_TD, 
 361              		.loc 1 134 0
 362 0046 E879     		ldrb	r0, [r5, #7]	@ zero_extendqisi2
 363              	.LVL37:
 364 0048 1146     		mov	r1, r2
 365              	.LVL38:
 366 004a FE22     		movs	r2, #254
 367              	.LVL39:
 368 004c 0523     		movs	r3, #5
 369 004e FFF7FEFF 		bl	CyDmaTdSetConfiguration
 370              	.LVL40:
 135:.\dma_util.c  ****                 CY_DMA_TD_INC_SRC_ADR | DMA_1__TD_TERMOUT_EN);
 136:.\dma_util.c  ****             CyDmaTdSetAddress(DMA_TD_1, LO16((uint32)pData), LO16((uint32)SPIM_1_TXDATA_PTR));
 371              		.loc 1 136 0
 372 0052 E879     		ldrb	r0, [r5, #7]	@ zero_extendqisi2
 373 0054 A1B2     		uxth	r1, r4
 374 0056 46F24142 		movw	r2, #25665
 375 005a FFF7FEFF 		bl	CyDmaTdSetAddress
 376              	.LVL41:
 137:.\dma_util.c  ****             CyDmaChSetInitialTd(DMA_Chan_1, DMA_TD_1);
ARM GAS  C:\Users\ericz\AppData\Local\Temp\ccNBdFy5.s 			page 10


 377              		.loc 1 137 0
 378 005e A879     		ldrb	r0, [r5, #6]	@ zero_extendqisi2
 379 0060 E979     		ldrb	r1, [r5, #7]	@ zero_extendqisi2
 380 0062 FFF7FEFF 		bl	CyDmaChSetInitialTd
 381              	.LVL42:
 138:.\dma_util.c  ****             CyDmaChEnable(DMA_Chan_1, 1);
 382              		.loc 1 138 0
 383 0066 A879     		ldrb	r0, [r5, #6]	@ zero_extendqisi2
 384 0068 3146     		mov	r1, r6
 385 006a FFF7FEFF 		bl	CyDmaChEnable
 386              	.LVL43:
 139:.\dma_util.c  ****             break;
 387              		.loc 1 139 0
 388 006e 70BD     		pop	{r4, r5, r6, pc}
 389              	.LVL44:
 390              	.L28:
 140:.\dma_util.c  ****         case 2:
 141:.\dma_util.c  ****             isDmaBusy_2 = 1;
 391              		.loc 1 141 0
 392 0070 174D     		ldr	r5, .L31
 393 0072 0126     		movs	r6, #1
 394 0074 AE70     		strb	r6, [r5, #2]
 142:.\dma_util.c  ****             CyDmaTdSetConfiguration(DMA_TD_2, length, CY_DMA_DISABLE_TD, 
 395              		.loc 1 142 0
 396 0076 687A     		ldrb	r0, [r5, #9]	@ zero_extendqisi2
 397              	.LVL45:
 398 0078 1146     		mov	r1, r2
 399              	.LVL46:
 400 007a FE22     		movs	r2, #254
 401              	.LVL47:
 402 007c 0523     		movs	r3, #5
 403 007e FFF7FEFF 		bl	CyDmaTdSetConfiguration
 404              	.LVL48:
 143:.\dma_util.c  ****                 CY_DMA_TD_INC_SRC_ADR | DMA_2__TD_TERMOUT_EN);
 144:.\dma_util.c  ****             CyDmaTdSetAddress(DMA_TD_2, LO16((uint32)pData), LO16((uint32)SPIM_2_TXDATA_PTR));
 405              		.loc 1 144 0
 406 0082 687A     		ldrb	r0, [r5, #9]	@ zero_extendqisi2
 407 0084 A1B2     		uxth	r1, r4
 408 0086 46F24A52 		movw	r2, #25930
 409 008a FFF7FEFF 		bl	CyDmaTdSetAddress
 410              	.LVL49:
 145:.\dma_util.c  ****             CyDmaChSetInitialTd(DMA_Chan_2, DMA_TD_2);
 411              		.loc 1 145 0
 412 008e 287A     		ldrb	r0, [r5, #8]	@ zero_extendqisi2
 413 0090 697A     		ldrb	r1, [r5, #9]	@ zero_extendqisi2
 414 0092 FFF7FEFF 		bl	CyDmaChSetInitialTd
 415              	.LVL50:
 146:.\dma_util.c  ****             CyDmaChEnable(DMA_Chan_2, 1);
 416              		.loc 1 146 0
 417 0096 287A     		ldrb	r0, [r5, #8]	@ zero_extendqisi2
 418 0098 3146     		mov	r1, r6
 419 009a FFF7FEFF 		bl	CyDmaChEnable
 420              	.LVL51:
 147:.\dma_util.c  ****             break;
 421              		.loc 1 147 0
 422 009e 70BD     		pop	{r4, r5, r6, pc}
 423              	.LVL52:
ARM GAS  C:\Users\ericz\AppData\Local\Temp\ccNBdFy5.s 			page 11


 424              	.L29:
 148:.\dma_util.c  ****         case 3:
 149:.\dma_util.c  ****             isDmaBusy_3 = 1;
 425              		.loc 1 149 0
 426 00a0 0B4D     		ldr	r5, .L31
 427 00a2 0126     		movs	r6, #1
 428 00a4 EE70     		strb	r6, [r5, #3]
 150:.\dma_util.c  ****             CyDmaTdSetConfiguration(DMA_TD_3, length, CY_DMA_DISABLE_TD, 
 429              		.loc 1 150 0
 430 00a6 E87A     		ldrb	r0, [r5, #11]	@ zero_extendqisi2
 431              	.LVL53:
 432 00a8 1146     		mov	r1, r2
 433              	.LVL54:
 434 00aa FE22     		movs	r2, #254
 435              	.LVL55:
 436 00ac 0523     		movs	r3, #5
 437 00ae FFF7FEFF 		bl	CyDmaTdSetConfiguration
 438              	.LVL56:
 151:.\dma_util.c  ****                 CY_DMA_TD_INC_SRC_ADR | DMA_3__TD_TERMOUT_EN);
 152:.\dma_util.c  ****             CyDmaTdSetAddress(DMA_TD_3, LO16((uint32)pData), LO16((uint32)SPIM_3_TXDATA_PTR));
 439              		.loc 1 152 0
 440 00b2 E87A     		ldrb	r0, [r5, #11]	@ zero_extendqisi2
 441 00b4 A1B2     		uxth	r1, r4
 442 00b6 46F24242 		movw	r2, #25666
 443 00ba FFF7FEFF 		bl	CyDmaTdSetAddress
 444              	.LVL57:
 153:.\dma_util.c  ****             CyDmaChSetInitialTd(DMA_Chan_3, DMA_TD_3);
 445              		.loc 1 153 0
 446 00be A87A     		ldrb	r0, [r5, #10]	@ zero_extendqisi2
 447 00c0 E97A     		ldrb	r1, [r5, #11]	@ zero_extendqisi2
 448 00c2 FFF7FEFF 		bl	CyDmaChSetInitialTd
 449              	.LVL58:
 154:.\dma_util.c  ****             CyDmaChEnable(DMA_Chan_3, 1);
 450              		.loc 1 154 0
 451 00c6 A87A     		ldrb	r0, [r5, #10]	@ zero_extendqisi2
 452 00c8 3146     		mov	r1, r6
 453 00ca FFF7FEFF 		bl	CyDmaChEnable
 454              	.LVL59:
 455              	.L23:
 456 00ce 70BD     		pop	{r4, r5, r6, pc}
 457              	.LVL60:
 458              	.L32:
 459              		.align	2
 460              	.L31:
 461 00d0 00000000 		.word	.LANCHOR0
 462              		.cfi_endproc
 463              	.LFE68:
 464              		.size	DMA_Feed_SPI_Async, .-DMA_Feed_SPI_Async
 465              		.section	.text.DMA_Wait_For_Completion,"ax",%progbits
 466              		.align	2
 467              		.global	DMA_Wait_For_Completion
 468              		.thumb
 469              		.thumb_func
 470              		.type	DMA_Wait_For_Completion, %function
 471              	DMA_Wait_For_Completion:
 472              	.LFB69:
 155:.\dma_util.c  ****             break;
ARM GAS  C:\Users\ericz\AppData\Local\Temp\ccNBdFy5.s 			page 12


 156:.\dma_util.c  ****     }
 157:.\dma_util.c  **** }
 158:.\dma_util.c  **** 
 159:.\dma_util.c  **** 
 160:.\dma_util.c  **** //==============================================================
 161:.\dma_util.c  **** // DMA_Wait_For_Completion
 162:.\dma_util.c  **** // blocking DMA delay
 163:.\dma_util.c  **** //==============================================================
 164:.\dma_util.c  **** void DMA_Wait_For_Completion(uint8 disp) {
 473              		.loc 1 164 0
 474              		.cfi_startproc
 475              		@ args = 0, pretend = 0, frame = 8
 476              		@ frame_needed = 0, uses_anonymous_args = 0
 477              	.LVL61:
 478 0000 00B5     		push	{lr}
 479              		.cfi_def_cfa_offset 4
 480              		.cfi_offset 14, -4
 481 0002 83B0     		sub	sp, sp, #12
 482              		.cfi_def_cfa_offset 16
 165:.\dma_util.c  ****     uint8 currentTd = 0;
 483              		.loc 1 165 0
 484 0004 0023     		movs	r3, #0
 485 0006 8DF80730 		strb	r3, [sp, #7]
 166:.\dma_util.c  ****     uint8 state = 0;
 486              		.loc 1 166 0
 487 000a 8DF80630 		strb	r3, [sp, #6]
 167:.\dma_util.c  ****     
 168:.\dma_util.c  ****     switch (disp)
 488              		.loc 1 168 0
 489 000e 0328     		cmp	r0, #3
 490 0010 5AD8     		bhi	.L33
 491 0012 DFE800F0 		tbb	[pc, r0]
 492              	.L36:
 493 0016 02       		.byte	(.L35-.L36)/2
 494 0017 18       		.byte	(.L37-.L36)/2
 495 0018 2E       		.byte	(.L38-.L36)/2
 496 0019 44       		.byte	(.L39-.L36)/2
 497              		.p2align 1
 498              	.L35:
 169:.\dma_util.c  ****     {
 170:.\dma_util.c  ****         case 0:
 171:.\dma_util.c  ****             if (isDmaBusy_0 == 0) return;
 499              		.loc 1 171 0
 500 001a 2D4B     		ldr	r3, .L47
 501 001c 1B78     		ldrb	r3, [r3]	@ zero_extendqisi2
 502 001e 13F0FF0F 		tst	r3, #255
 503 0022 51D0     		beq	.L33
 504              	.LVL62:
 505              	.L41:
 172:.\dma_util.c  ****             do {
 173:.\dma_util.c  ****                 CyDmaChStatus(DMA_Chan_0, &currentTd, &state);
 506              		.loc 1 173 0 discriminator 1
 507 0024 2A4B     		ldr	r3, .L47
 508 0026 1879     		ldrb	r0, [r3, #4]	@ zero_extendqisi2
 509 0028 0DF10701 		add	r1, sp, #7
 510 002c 0DF10602 		add	r2, sp, #6
 511 0030 FFF7FEFF 		bl	CyDmaChStatus
ARM GAS  C:\Users\ericz\AppData\Local\Temp\ccNBdFy5.s 			page 13


 512              	.LVL63:
 174:.\dma_util.c  ****             } while ((state & (CY_DMA_STATUS_TD_ACTIVE | CY_DMA_STATUS_CHAIN_ACTIVE)) != 0);
 513              		.loc 1 174 0 discriminator 1
 514 0034 9DF80630 		ldrb	r3, [sp, #6]	@ zero_extendqisi2
 515 0038 13F0030F 		tst	r3, #3
 516 003c F2D1     		bne	.L41
 175:.\dma_util.c  ****             isDmaBusy_0 = 0;
 517              		.loc 1 175 0
 518 003e 0022     		movs	r2, #0
 519 0040 234B     		ldr	r3, .L47
 520 0042 1A70     		strb	r2, [r3]
 176:.\dma_util.c  ****             break;
 521              		.loc 1 176 0
 522 0044 40E0     		b	.L33
 523              	.LVL64:
 524              	.L37:
 177:.\dma_util.c  ****         case 1:
 178:.\dma_util.c  ****             if (isDmaBusy_1 == 0) return;
 525              		.loc 1 178 0
 526 0046 224B     		ldr	r3, .L47
 527 0048 5B78     		ldrb	r3, [r3, #1]	@ zero_extendqisi2
 528 004a 13F0FF0F 		tst	r3, #255
 529 004e 3BD0     		beq	.L33
 530              	.LVL65:
 531              	.L42:
 179:.\dma_util.c  ****             do {
 180:.\dma_util.c  ****                 CyDmaChStatus(DMA_Chan_1, &currentTd, &state);
 532              		.loc 1 180 0 discriminator 1
 533 0050 1F4B     		ldr	r3, .L47
 534 0052 9879     		ldrb	r0, [r3, #6]	@ zero_extendqisi2
 535 0054 0DF10701 		add	r1, sp, #7
 536 0058 0DF10602 		add	r2, sp, #6
 537 005c FFF7FEFF 		bl	CyDmaChStatus
 538              	.LVL66:
 181:.\dma_util.c  ****             } while ((state & (CY_DMA_STATUS_TD_ACTIVE | CY_DMA_STATUS_CHAIN_ACTIVE)) != 0);
 539              		.loc 1 181 0 discriminator 1
 540 0060 9DF80630 		ldrb	r3, [sp, #6]	@ zero_extendqisi2
 541 0064 13F0030F 		tst	r3, #3
 542 0068 F2D1     		bne	.L42
 182:.\dma_util.c  ****             isDmaBusy_1 = 0;
 543              		.loc 1 182 0
 544 006a 0022     		movs	r2, #0
 545 006c 184B     		ldr	r3, .L47
 546 006e 5A70     		strb	r2, [r3, #1]
 183:.\dma_util.c  ****             break;
 547              		.loc 1 183 0
 548 0070 2AE0     		b	.L33
 549              	.LVL67:
 550              	.L38:
 184:.\dma_util.c  ****         case 2:
 185:.\dma_util.c  ****             if (isDmaBusy_2 == 0) return;
 551              		.loc 1 185 0
 552 0072 174B     		ldr	r3, .L47
 553 0074 9B78     		ldrb	r3, [r3, #2]	@ zero_extendqisi2
 554 0076 13F0FF0F 		tst	r3, #255
 555 007a 25D0     		beq	.L33
 556              	.LVL68:
ARM GAS  C:\Users\ericz\AppData\Local\Temp\ccNBdFy5.s 			page 14


 557              	.L43:
 186:.\dma_util.c  ****             do {
 187:.\dma_util.c  ****                 CyDmaChStatus(DMA_Chan_2, &currentTd, &state);
 558              		.loc 1 187 0 discriminator 1
 559 007c 144B     		ldr	r3, .L47
 560 007e 187A     		ldrb	r0, [r3, #8]	@ zero_extendqisi2
 561 0080 0DF10701 		add	r1, sp, #7
 562 0084 0DF10602 		add	r2, sp, #6
 563 0088 FFF7FEFF 		bl	CyDmaChStatus
 564              	.LVL69:
 188:.\dma_util.c  ****             } while ((state & (CY_DMA_STATUS_TD_ACTIVE | CY_DMA_STATUS_CHAIN_ACTIVE)) != 0);
 565              		.loc 1 188 0 discriminator 1
 566 008c 9DF80630 		ldrb	r3, [sp, #6]	@ zero_extendqisi2
 567 0090 13F0030F 		tst	r3, #3
 568 0094 F2D1     		bne	.L43
 189:.\dma_util.c  ****             isDmaBusy_2 = 0;
 569              		.loc 1 189 0
 570 0096 0022     		movs	r2, #0
 571 0098 0D4B     		ldr	r3, .L47
 572 009a 9A70     		strb	r2, [r3, #2]
 190:.\dma_util.c  ****             break;
 573              		.loc 1 190 0
 574 009c 14E0     		b	.L33
 575              	.LVL70:
 576              	.L39:
 191:.\dma_util.c  ****         case 3:
 192:.\dma_util.c  ****             if (isDmaBusy_3 == 0) return;
 577              		.loc 1 192 0
 578 009e 0C4B     		ldr	r3, .L47
 579 00a0 DB78     		ldrb	r3, [r3, #3]	@ zero_extendqisi2
 580 00a2 13F0FF0F 		tst	r3, #255
 581 00a6 0FD0     		beq	.L33
 582              	.LVL71:
 583              	.L44:
 193:.\dma_util.c  ****             do {
 194:.\dma_util.c  ****                 CyDmaChStatus(DMA_Chan_3, &currentTd, &state);
 584              		.loc 1 194 0 discriminator 1
 585 00a8 094B     		ldr	r3, .L47
 586 00aa 987A     		ldrb	r0, [r3, #10]	@ zero_extendqisi2
 587 00ac 0DF10701 		add	r1, sp, #7
 588 00b0 0DF10602 		add	r2, sp, #6
 589 00b4 FFF7FEFF 		bl	CyDmaChStatus
 590              	.LVL72:
 195:.\dma_util.c  ****             } while ((state & (CY_DMA_STATUS_TD_ACTIVE | CY_DMA_STATUS_CHAIN_ACTIVE)) != 0);
 591              		.loc 1 195 0 discriminator 1
 592 00b8 9DF80630 		ldrb	r3, [sp, #6]	@ zero_extendqisi2
 593 00bc 13F0030F 		tst	r3, #3
 594 00c0 F2D1     		bne	.L44
 196:.\dma_util.c  ****             isDmaBusy_3 = 0;
 595              		.loc 1 196 0
 596 00c2 0022     		movs	r2, #0
 597 00c4 024B     		ldr	r3, .L47
 598 00c6 DA70     		strb	r2, [r3, #3]
 599              	.L33:
 197:.\dma_util.c  ****             break;
 198:.\dma_util.c  ****     }
 199:.\dma_util.c  **** }
ARM GAS  C:\Users\ericz\AppData\Local\Temp\ccNBdFy5.s 			page 15


 600              		.loc 1 199 0
 601 00c8 03B0     		add	sp, sp, #12
 602              		.cfi_def_cfa_offset 4
 603              		@ sp needed
 604 00ca 5DF804FB 		ldr	pc, [sp], #4
 605              	.L48:
 606 00ce 00BF     		.align	2
 607              	.L47:
 608 00d0 00000000 		.word	.LANCHOR0
 609              		.cfi_endproc
 610              	.LFE69:
 611              		.size	DMA_Wait_For_Completion, .-DMA_Wait_For_Completion
 612              		.global	isDmaBusy_3
 613              		.global	isDmaBusy_2
 614              		.global	isDmaBusy_1
 615              		.global	isDmaBusy_0
 616              		.comm	bufferB_3,640,4
 617              		.comm	bufferA_3,640,4
 618              		.comm	bufferB_2,640,4
 619              		.comm	bufferA_2,640,4
 620              		.comm	bufferB_1,640,4
 621              		.comm	bufferA_1,640,4
 622              		.comm	bufferB_0,640,4
 623              		.comm	bufferA_0,640,4
 624              		.bss
 625              		.set	.LANCHOR0,. + 0
 626              		.type	isDmaBusy_0, %object
 627              		.size	isDmaBusy_0, 1
 628              	isDmaBusy_0:
 629 0000 00       		.space	1
 630              		.type	isDmaBusy_1, %object
 631              		.size	isDmaBusy_1, 1
 632              	isDmaBusy_1:
 633 0001 00       		.space	1
 634              		.type	isDmaBusy_2, %object
 635              		.size	isDmaBusy_2, 1
 636              	isDmaBusy_2:
 637 0002 00       		.space	1
 638              		.type	isDmaBusy_3, %object
 639              		.size	isDmaBusy_3, 1
 640              	isDmaBusy_3:
 641 0003 00       		.space	1
 642              		.type	DMA_Chan_0, %object
 643              		.size	DMA_Chan_0, 1
 644              	DMA_Chan_0:
 645 0004 00       		.space	1
 646              		.type	DMA_TD_0, %object
 647              		.size	DMA_TD_0, 1
 648              	DMA_TD_0:
 649 0005 00       		.space	1
 650              		.type	DMA_Chan_1, %object
 651              		.size	DMA_Chan_1, 1
 652              	DMA_Chan_1:
 653 0006 00       		.space	1
 654              		.type	DMA_TD_1, %object
 655              		.size	DMA_TD_1, 1
 656              	DMA_TD_1:
ARM GAS  C:\Users\ericz\AppData\Local\Temp\ccNBdFy5.s 			page 16


 657 0007 00       		.space	1
 658              		.type	DMA_Chan_2, %object
 659              		.size	DMA_Chan_2, 1
 660              	DMA_Chan_2:
 661 0008 00       		.space	1
 662              		.type	DMA_TD_2, %object
 663              		.size	DMA_TD_2, 1
 664              	DMA_TD_2:
 665 0009 00       		.space	1
 666              		.type	DMA_Chan_3, %object
 667              		.size	DMA_Chan_3, 1
 668              	DMA_Chan_3:
 669 000a 00       		.space	1
 670              		.type	DMA_TD_3, %object
 671              		.size	DMA_TD_3, 1
 672              	DMA_TD_3:
 673 000b 00       		.space	1
 674              		.text
 675              	.Letext0:
 676              		.file 2 "c:\\program files (x86)\\cypress\\psoc creator\\3.3\\psoc creator\\import\\gnu\\arm\\4.9.
 677              		.file 3 "c:\\program files (x86)\\cypress\\psoc creator\\3.3\\psoc creator\\import\\gnu\\arm\\4.9.
 678              		.file 4 "Generated_Source\\PSoC5/cytypes.h"
 679              		.file 5 "Generated_Source\\PSoC5/core_cm3.h"
 680              		.file 6 "Generated_Source\\PSoC5/DMA_0_dma.h"
 681              		.file 7 "Generated_Source\\PSoC5/CYDMAC.H"
 682              		.file 8 "Generated_Source\\PSoC5/DMA_1_dma.h"
 683              		.file 9 "Generated_Source\\PSoC5/DMA_Complete_ISR_0.h"
 684              		.file 10 "Generated_Source\\PSoC5/DMA_Complete_ISR_1.h"
 685              		.file 11 "Generated_Source\\PSoC5/DMA_2_dma.h"
 686              		.file 12 "Generated_Source\\PSoC5/DMA_Complete_ISR_2.h"
 687              		.file 13 "Generated_Source\\PSoC5/DMA_3_dma.h"
 688              		.file 14 "Generated_Source\\PSoC5/DMA_Complete_ISR_3.h"