ARM GAS  C:\Users\ericz\AppData\Local\Temp\ccNktoTH.s 			page 1


   1              		.syntax unified
   2              		.cpu cortex-m3
   3              		.fpu softvfp
   4              		.eabi_attribute 20, 1
   5              		.eabi_attribute 21, 1
   6              		.eabi_attribute 23, 3
   7              		.eabi_attribute 24, 1
   8              		.eabi_attribute 25, 1
   9              		.eabi_attribute 26, 1
  10              		.eabi_attribute 30, 1
  11              		.eabi_attribute 34, 1
  12              		.eabi_attribute 18, 4
  13              		.thumb
  14              		.file	"imu.c"
  15              		.text
  16              	.Ltext0:
  17              		.cfi_sections	.debug_frame
  18              		.section	.text.MPU6050_Start,"ax",%progbits
  19              		.align	2
  20              		.global	MPU6050_Start
  21              		.thumb
  22              		.thumb_func
  23              		.type	MPU6050_Start, %function
  24              	MPU6050_Start:
  25              	.LFB63:
  26              		.file 1 ".\\imu.c"
   1:.\imu.c       **** #include <project.h>
   2:.\imu.c       **** #include "imu.h"
   3:.\imu.c       **** 
   4:.\imu.c       **** // initialize the MPU6050
   5:.\imu.c       **** void MPU6050_Start(void) {
  27              		.loc 1 5 0
  28              		.cfi_startproc
  29              		@ args = 0, pretend = 0, frame = 0
  30              		@ frame_needed = 0, uses_anonymous_args = 0
  31 0000 08B5     		push	{r3, lr}
  32              		.cfi_def_cfa_offset 8
  33              		.cfi_offset 3, -8
  34              		.cfi_offset 14, -4
   6:.\imu.c       ****     I2C_1_MasterSendStart(MPU6050_ADDRESS, I2C_1_WRITE_XFER_MODE);
  35              		.loc 1 6 0
  36 0002 6820     		movs	r0, #104
  37 0004 0021     		movs	r1, #0
  38 0006 FFF7FEFF 		bl	I2C_1_MasterSendStart
  39              	.LVL0:
   7:.\imu.c       ****     I2C_1_MasterWriteByte(PWR_MGMT_1);
  40              		.loc 1 7 0
  41 000a 6B20     		movs	r0, #107
  42 000c FFF7FEFF 		bl	I2C_1_MasterWriteByte
  43              	.LVL1:
   8:.\imu.c       ****     I2C_1_MasterWriteByte(0x01);
  44              		.loc 1 8 0
  45 0010 0120     		movs	r0, #1
  46 0012 FFF7FEFF 		bl	I2C_1_MasterWriteByte
  47              	.LVL2:
   9:.\imu.c       ****     I2C_1_MasterSendStop();
  48              		.loc 1 9 0
ARM GAS  C:\Users\ericz\AppData\Local\Temp\ccNktoTH.s 			page 2


  49 0016 FFF7FEFF 		bl	I2C_1_MasterSendStop
  50              	.LVL3:
  51 001a 08BD     		pop	{r3, pc}
  52              		.cfi_endproc
  53              	.LFE63:
  54              		.size	MPU6050_Start, .-MPU6050_Start
  55              		.section	.text.Read_Accel_Data,"ax",%progbits
  56              		.align	2
  57              		.global	Read_Accel_Data
  58              		.thumb
  59              		.thumb_func
  60              		.type	Read_Accel_Data, %function
  61              	Read_Accel_Data:
  62              	.LFB64:
  10:.\imu.c       **** }
  11:.\imu.c       **** 
  12:.\imu.c       **** // get data from accelerometer
  13:.\imu.c       **** void Read_Accel_Data(int16 *ax, int16 *ay, int16 *az) {
  63              		.loc 1 13 0
  64              		.cfi_startproc
  65              		@ args = 0, pretend = 0, frame = 8
  66              		@ frame_needed = 0, uses_anonymous_args = 0
  67              	.LVL4:
  68 0000 F0B5     		push	{r4, r5, r6, r7, lr}
  69              		.cfi_def_cfa_offset 20
  70              		.cfi_offset 4, -20
  71              		.cfi_offset 5, -16
  72              		.cfi_offset 6, -12
  73              		.cfi_offset 7, -8
  74              		.cfi_offset 14, -4
  75 0002 83B0     		sub	sp, sp, #12
  76              		.cfi_def_cfa_offset 32
  77 0004 0746     		mov	r7, r0
  78 0006 0E46     		mov	r6, r1
  79 0008 1546     		mov	r5, r2
  14:.\imu.c       ****     uint8 data[6];
  15:.\imu.c       **** 
  16:.\imu.c       ****     I2C_1_MasterSendStart(MPU6050_ADDRESS, I2C_1_WRITE_XFER_MODE);
  80              		.loc 1 16 0
  81 000a 6820     		movs	r0, #104
  82              	.LVL5:
  83 000c 0021     		movs	r1, #0
  84              	.LVL6:
  85 000e FFF7FEFF 		bl	I2C_1_MasterSendStart
  86              	.LVL7:
  17:.\imu.c       ****     I2C_1_MasterWriteByte(ACCEL_XOUT_H);
  87              		.loc 1 17 0
  88 0012 3B20     		movs	r0, #59
  89 0014 FFF7FEFF 		bl	I2C_1_MasterWriteByte
  90              	.LVL8:
  18:.\imu.c       **** 
  19:.\imu.c       ****     // read 6 bytes of accelerometer data
  20:.\imu.c       ****     I2C_1_MasterSendRestart(MPU6050_ADDRESS, I2C_1_READ_XFER_MODE);
  91              		.loc 1 20 0
  92 0018 6820     		movs	r0, #104
  93 001a 0121     		movs	r1, #1
  94 001c FFF7FEFF 		bl	I2C_1_MasterSendRestart
ARM GAS  C:\Users\ericz\AppData\Local\Temp\ccNktoTH.s 			page 3


  95              	.LVL9:
  21:.\imu.c       ****     
  22:.\imu.c       ****     int i;
  23:.\imu.c       ****     for(i = 0; i < 5; i++) {
  96              		.loc 1 23 0
  97 0020 0024     		movs	r4, #0
  98 0022 07E0     		b	.L4
  99              	.LVL10:
 100              	.L5:
  24:.\imu.c       ****         data[i] = I2C_1_MasterReadByte(I2C_1_ACK_DATA);
 101              		.loc 1 24 0 discriminator 3
 102 0024 0120     		movs	r0, #1
 103 0026 FFF7FEFF 		bl	I2C_1_MasterReadByte
 104              	.LVL11:
 105 002a 02AB     		add	r3, sp, #8
 106 002c 2344     		add	r3, r3, r4
 107 002e 03F8080C 		strb	r0, [r3, #-8]
  23:.\imu.c       ****         data[i] = I2C_1_MasterReadByte(I2C_1_ACK_DATA);
 108              		.loc 1 23 0 discriminator 3
 109 0032 0134     		adds	r4, r4, #1
 110              	.LVL12:
 111              	.L4:
  23:.\imu.c       ****         data[i] = I2C_1_MasterReadByte(I2C_1_ACK_DATA);
 112              		.loc 1 23 0 is_stmt 0 discriminator 1
 113 0034 042C     		cmp	r4, #4
 114 0036 F5DD     		ble	.L5
  25:.\imu.c       ****     }
  26:.\imu.c       ****     data[5] = I2C_1_MasterReadByte(I2C_1_NAK_DATA); 
 115              		.loc 1 26 0 is_stmt 1
 116 0038 0020     		movs	r0, #0
 117 003a FFF7FEFF 		bl	I2C_1_MasterReadByte
 118              	.LVL13:
 119 003e 0446     		mov	r4, r0
 120              	.LVL14:
  27:.\imu.c       ****     I2C_1_MasterSendStop();
 121              		.loc 1 27 0
 122 0040 FFF7FEFF 		bl	I2C_1_MasterSendStop
 123              	.LVL15:
  28:.\imu.c       **** 
  29:.\imu.c       ****     // store accelerometer data
  30:.\imu.c       ****     *ax = (int16)((data[0] << 8) | data[1]);
 124              		.loc 1 30 0
 125 0044 9DF80020 		ldrb	r2, [sp]	@ zero_extendqisi2
 126 0048 9DF80130 		ldrb	r3, [sp, #1]	@ zero_extendqisi2
 127 004c 43EA0223 		orr	r3, r3, r2, lsl #8
 128 0050 3B80     		strh	r3, [r7]	@ movhi
  31:.\imu.c       ****     *ay = (int16)((data[2] << 8) | data[3]);
 129              		.loc 1 31 0
 130 0052 9DF80220 		ldrb	r2, [sp, #2]	@ zero_extendqisi2
 131 0056 9DF80330 		ldrb	r3, [sp, #3]	@ zero_extendqisi2
 132 005a 43EA0223 		orr	r3, r3, r2, lsl #8
 133 005e 3380     		strh	r3, [r6]	@ movhi
  32:.\imu.c       ****     *az = (int16)((data[4] << 8) | data[5]);   
 134              		.loc 1 32 0
 135 0060 9DF80430 		ldrb	r3, [sp, #4]	@ zero_extendqisi2
 136 0064 44EA0324 		orr	r4, r4, r3, lsl #8
 137 0068 2C80     		strh	r4, [r5]	@ movhi
ARM GAS  C:\Users\ericz\AppData\Local\Temp\ccNktoTH.s 			page 4


  33:.\imu.c       **** }
 138              		.loc 1 33 0
 139 006a 03B0     		add	sp, sp, #12
 140              		.cfi_def_cfa_offset 20
 141              		@ sp needed
 142 006c F0BD     		pop	{r4, r5, r6, r7, pc}
 143              		.cfi_endproc
 144              	.LFE64:
 145              		.size	Read_Accel_Data, .-Read_Accel_Data
 146 006e 00BF     		.section	.text.Read_Gyro_Data,"ax",%progbits
 147              		.align	2
 148              		.global	Read_Gyro_Data
 149              		.thumb
 150              		.thumb_func
 151              		.type	Read_Gyro_Data, %function
 152              	Read_Gyro_Data:
 153              	.LFB65:
  34:.\imu.c       **** 
  35:.\imu.c       **** // get data from gyro
  36:.\imu.c       **** void Read_Gyro_Data(int16 *gx, int16 *gy, int16 *gz) {
 154              		.loc 1 36 0
 155              		.cfi_startproc
 156              		@ args = 0, pretend = 0, frame = 8
 157              		@ frame_needed = 0, uses_anonymous_args = 0
 158              	.LVL16:
 159 0000 F0B5     		push	{r4, r5, r6, r7, lr}
 160              		.cfi_def_cfa_offset 20
 161              		.cfi_offset 4, -20
 162              		.cfi_offset 5, -16
 163              		.cfi_offset 6, -12
 164              		.cfi_offset 7, -8
 165              		.cfi_offset 14, -4
 166 0002 83B0     		sub	sp, sp, #12
 167              		.cfi_def_cfa_offset 32
 168 0004 0746     		mov	r7, r0
 169 0006 0E46     		mov	r6, r1
 170 0008 1546     		mov	r5, r2
  37:.\imu.c       ****     uint8 data[6];
  38:.\imu.c       ****     
  39:.\imu.c       ****     I2C_1_MasterSendStart(MPU6050_ADDRESS, I2C_1_WRITE_XFER_MODE);
 171              		.loc 1 39 0
 172 000a 6820     		movs	r0, #104
 173              	.LVL17:
 174 000c 0021     		movs	r1, #0
 175              	.LVL18:
 176 000e FFF7FEFF 		bl	I2C_1_MasterSendStart
 177              	.LVL19:
  40:.\imu.c       ****     I2C_1_MasterWriteByte(GYRO_XOUT_H);
 178              		.loc 1 40 0
 179 0012 4320     		movs	r0, #67
 180 0014 FFF7FEFF 		bl	I2C_1_MasterWriteByte
 181              	.LVL20:
  41:.\imu.c       ****     
  42:.\imu.c       ****     // read 6 bytes of gyroscope data
  43:.\imu.c       ****     I2C_1_MasterSendRestart(MPU6050_ADDRESS, I2C_1_READ_XFER_MODE);
 182              		.loc 1 43 0
 183 0018 6820     		movs	r0, #104
ARM GAS  C:\Users\ericz\AppData\Local\Temp\ccNktoTH.s 			page 5


 184 001a 0121     		movs	r1, #1
 185 001c FFF7FEFF 		bl	I2C_1_MasterSendRestart
 186              	.LVL21:
  44:.\imu.c       ****     
  45:.\imu.c       ****     int i;
  46:.\imu.c       ****     for (i = 0; i < 5; i ++) {
 187              		.loc 1 46 0
 188 0020 0024     		movs	r4, #0
 189 0022 07E0     		b	.L8
 190              	.LVL22:
 191              	.L9:
  47:.\imu.c       ****         data[i] = I2C_1_MasterReadByte(I2C_1_ACK_DATA);
 192              		.loc 1 47 0 discriminator 3
 193 0024 0120     		movs	r0, #1
 194 0026 FFF7FEFF 		bl	I2C_1_MasterReadByte
 195              	.LVL23:
 196 002a 02AB     		add	r3, sp, #8
 197 002c 2344     		add	r3, r3, r4
 198 002e 03F8080C 		strb	r0, [r3, #-8]
  46:.\imu.c       ****         data[i] = I2C_1_MasterReadByte(I2C_1_ACK_DATA);
 199              		.loc 1 46 0 discriminator 3
 200 0032 0134     		adds	r4, r4, #1
 201              	.LVL24:
 202              	.L8:
  46:.\imu.c       ****         data[i] = I2C_1_MasterReadByte(I2C_1_ACK_DATA);
 203              		.loc 1 46 0 is_stmt 0 discriminator 1
 204 0034 042C     		cmp	r4, #4
 205 0036 F5DD     		ble	.L9
  48:.\imu.c       ****     }
  49:.\imu.c       ****     data[5] = I2C_1_MasterReadByte(I2C_1_NAK_DATA);
 206              		.loc 1 49 0 is_stmt 1
 207 0038 0020     		movs	r0, #0
 208 003a FFF7FEFF 		bl	I2C_1_MasterReadByte
 209              	.LVL25:
 210 003e 0446     		mov	r4, r0
 211              	.LVL26:
  50:.\imu.c       ****     I2C_1_MasterSendStop();
 212              		.loc 1 50 0
 213 0040 FFF7FEFF 		bl	I2C_1_MasterSendStop
 214              	.LVL27:
  51:.\imu.c       ****     
  52:.\imu.c       ****     // store gyroscope data
  53:.\imu.c       ****     *gx = (int16)((data[0] << 8) | data[1]);
 215              		.loc 1 53 0
 216 0044 9DF80020 		ldrb	r2, [sp]	@ zero_extendqisi2
 217 0048 9DF80130 		ldrb	r3, [sp, #1]	@ zero_extendqisi2
 218 004c 43EA0223 		orr	r3, r3, r2, lsl #8
 219 0050 3B80     		strh	r3, [r7]	@ movhi
  54:.\imu.c       ****     *gy = (int16)((data[2] << 8) | data[3]);
 220              		.loc 1 54 0
 221 0052 9DF80220 		ldrb	r2, [sp, #2]	@ zero_extendqisi2
 222 0056 9DF80330 		ldrb	r3, [sp, #3]	@ zero_extendqisi2
 223 005a 43EA0223 		orr	r3, r3, r2, lsl #8
 224 005e 3380     		strh	r3, [r6]	@ movhi
  55:.\imu.c       ****     *gz = (int16)((data[4] << 8) | data[5]);
 225              		.loc 1 55 0
 226 0060 9DF80430 		ldrb	r3, [sp, #4]	@ zero_extendqisi2
ARM GAS  C:\Users\ericz\AppData\Local\Temp\ccNktoTH.s 			page 6


 227 0064 44EA0324 		orr	r4, r4, r3, lsl #8
 228 0068 2C80     		strh	r4, [r5]	@ movhi
  56:.\imu.c       **** }
 229              		.loc 1 56 0
 230 006a 03B0     		add	sp, sp, #12
 231              		.cfi_def_cfa_offset 20
 232              		@ sp needed
 233 006c F0BD     		pop	{r4, r5, r6, r7, pc}
 234              		.cfi_endproc
 235              	.LFE65:
 236              		.size	Read_Gyro_Data, .-Read_Gyro_Data
 237 006e 00BF     		.text
 238              	.Letext0:
 239              		.file 2 "c:\\program files (x86)\\cypress\\psoc creator\\3.3\\psoc creator\\import\\gnu\\arm\\4.9.
 240              		.file 3 "c:\\program files (x86)\\cypress\\psoc creator\\3.3\\psoc creator\\import\\gnu\\arm\\4.9.
 241              		.file 4 "Generated_Source\\PSoC5/cytypes.h"
 242              		.file 5 "Generated_Source\\PSoC5/I2C_1.h"
 243              		.file 6 "Generated_Source\\PSoC5/core_cm3.h"