ARM GAS  C:\Users\ericz\AppData\Local\Temp\ccRQlSId.s 			page 1


   1              		.syntax unified
   2              		.cpu cortex-m3
   3              		.fpu softvfp
   4              		.eabi_attribute 20, 1
   5              		.eabi_attribute 21, 1
   6              		.eabi_attribute 23, 3
   7              		.eabi_attribute 24, 1
   8              		.eabi_attribute 25, 1
   9              		.eabi_attribute 26, 1
  10              		.eabi_attribute 30, 1
  11              		.eabi_attribute 34, 1
  12              		.eabi_attribute 18, 4
  13              		.thumb
  14              		.file	"lantern.c"
  15              		.text
  16              	.Ltext0:
  17              		.cfi_sections	.debug_frame
  18              		.section	.text.lightLantern,"ax",%progbits
  19              		.align	2
  20              		.global	lightLantern
  21              		.thumb
  22              		.thumb_func
  23              		.type	lightLantern, %function
  24              	lightLantern:
  25              	.LFB63:
  26              		.file 1 ".\\lantern.c"
   1:.\lantern.c   **** #include <project.h>
   2:.\lantern.c   **** #include "lantern.h"
   3:.\lantern.c   **** #include "tft.h"
   4:.\lantern.c   **** #include "dma_util.h"
   5:.\lantern.c   **** 
   6:.\lantern.c   **** 
   7:.\lantern.c   **** const uint8_t sineBrightness[256] = {
   8:.\lantern.c   ****     0x80, 0x83, 0x86, 0x89, 0x8c, 0x8f, 0x92, 0x95, 0x98, 0x9b, 0x9e, 0xa2, 0xa5, 0xa7, 0xaa, 0xad,
   9:.\lantern.c   ****     0xb0, 0xb3, 0xb6, 0xb9, 0xbc, 0xbe, 0xc1, 0xc4, 0xc6, 0xc9, 0xcb, 0xce, 0xd0, 0xd3, 0xd5, 0xd7,
  10:.\lantern.c   ****     0xda, 0xdc, 0xde, 0xe0, 0xe2, 0xe4, 0xe6, 0xe8, 0xea, 0xeb, 0xed, 0xee, 0xf0, 0xf1, 0xf3, 0xf4,
  11:.\lantern.c   ****     0xf5, 0xf6, 0xf8, 0xf9, 0xfa, 0xfa, 0xfb, 0xfc, 0xfd, 0xfd, 0xfe, 0xfe, 0xfe, 0xff, 0xff, 0xff,
  12:.\lantern.c   ****     0xff, 0xff, 0xff, 0xff, 0xfe, 0xfe, 0xfe, 0xfd, 0xfd, 0xfc, 0xfb, 0xfa, 0xfa, 0xf9, 0xf8, 0xf6,
  13:.\lantern.c   ****     0xf5, 0xf4, 0xf3, 0xf1, 0xf0, 0xee, 0xed, 0xeb, 0xea, 0xe8, 0xe6, 0xe4, 0xe2, 0xe0, 0xde, 0xdc,
  14:.\lantern.c   ****     0xda, 0xd7, 0xd5, 0xd3, 0xd0, 0xce, 0xcb, 0xc9, 0xc6, 0xc4, 0xc1, 0xbe, 0xbc, 0xb9, 0xb6, 0xb3,
  15:.\lantern.c   ****     0xb0, 0xad, 0xaa, 0xa7, 0xa5, 0xa2, 0x9e, 0x9b, 0x98, 0x95, 0x92, 0x8f, 0x8c, 0x89, 0x86, 0x83,
  16:.\lantern.c   ****     0x80, 0x7c, 0x79, 0x76, 0x73, 0x70, 0x6d, 0x6a, 0x67, 0x64, 0x61, 0x5d, 0x5a, 0x58, 0x55, 0x52,
  17:.\lantern.c   ****     0x4f, 0x4c, 0x49, 0x46, 0x43, 0x41, 0x3e, 0x3b, 0x39, 0x36, 0x34, 0x31, 0x2f, 0x2c, 0x2a, 0x28,
  18:.\lantern.c   ****     0x25, 0x23, 0x21, 0x1f, 0x1d, 0x1b, 0x19, 0x17, 0x15, 0x14, 0x12, 0x11, 0x0f, 0x0e, 0x0c, 0x0b,
  19:.\lantern.c   ****     0x0a, 0x09, 0x07, 0x06, 0x05, 0x05, 0x04, 0x03, 0x02, 0x02, 0x01, 0x01, 0x01, 0x00, 0x00, 0x00,
  20:.\lantern.c   ****     0x00, 0x00, 0x00, 0x00, 0x01, 0x01, 0x01, 0x02, 0x02, 0x03, 0x04, 0x05, 0x05, 0x06, 0x07, 0x09,
  21:.\lantern.c   ****     0x0a, 0x0b, 0x0c, 0x0e, 0x0f, 0x11, 0x12, 0x14, 0x15, 0x17, 0x19, 0x1b, 0x1d, 0x1f, 0x21, 0x23,
  22:.\lantern.c   ****     0x25, 0x28, 0x2a, 0x2c, 0x2f, 0x31, 0x34, 0x36, 0x39, 0x3b, 0x3e, 0x41, 0x43, 0x46, 0x49, 0x4c,
  23:.\lantern.c   ****     0x4f, 0x52, 0x55, 0x58, 0x5a, 0x5d, 0x61, 0x64, 0x67, 0x6a, 0x6d, 0x70, 0x73, 0x76, 0x79, 0x7c
  24:.\lantern.c   **** };
  25:.\lantern.c   **** 
  26:.\lantern.c   **** void lightLantern(uint8_t mode) {
  27              		.loc 1 26 0
  28              		.cfi_startproc
  29              		@ args = 0, pretend = 0, frame = 0
  30              		@ frame_needed = 0, uses_anonymous_args = 0
  31              	.LVL0:
ARM GAS  C:\Users\ericz\AppData\Local\Temp\ccRQlSId.s 			page 2


  32 0000 10B5     		push	{r4, lr}
  33              		.cfi_def_cfa_offset 8
  34              		.cfi_offset 4, -8
  35              		.cfi_offset 14, -4
  36 0002 82B0     		sub	sp, sp, #8
  37              		.cfi_def_cfa_offset 16
  27:.\lantern.c   ****     uint8_t disp;
  28:.\lantern.c   ****     
  29:.\lantern.c   ****     if (mode == 0) {                                // blue lantern
  38              		.loc 1 29 0
  39 0004 60B1     		cbz	r0, .L59
  40 0006 0024     		movs	r4, #0
  41 0008 FFE0     		b	.L3
  42              	.LVL1:
  43              	.L4:
  30:.\lantern.c   ****         for (disp = 0; disp < NUM_SCREENS; disp ++ ) {
  31:.\lantern.c   ****             DMA_Wait_For_Completion(disp);
  44              		.loc 1 31 0 discriminator 3
  45 000a 2046     		mov	r0, r4
  46 000c FFF7FEFF 		bl	DMA_Wait_For_Completion
  47              	.LVL2:
  32:.\lantern.c   ****             clearScreen(disp, 0x3A2A);
  48              		.loc 1 32 0 discriminator 3
  49 0010 2046     		mov	r0, r4
  50 0012 43F62A21 		movw	r1, #14890
  51 0016 FFF7FEFF 		bl	clearScreen
  52              	.LVL3:
  30:.\lantern.c   ****         for (disp = 0; disp < NUM_SCREENS; disp ++ ) {
  53              		.loc 1 30 0 discriminator 3
  54 001a 0134     		adds	r4, r4, #1
  55              	.LVL4:
  56 001c E4B2     		uxtb	r4, r4
  57              	.LVL5:
  58 001e 00E0     		b	.L2
  59              	.LVL6:
  60              	.L59:
  61 0020 0024     		movs	r4, #0
  62              	.LVL7:
  63              	.L2:
  30:.\lantern.c   ****         for (disp = 0; disp < NUM_SCREENS; disp ++ ) {
  64              		.loc 1 30 0 is_stmt 0 discriminator 1
  65 0022 032C     		cmp	r4, #3
  66 0024 F1D9     		bls	.L4
  67 0026 0024     		movs	r4, #0
  68              	.LVL8:
  69 0028 0EE0     		b	.L5
  70              	.LVL9:
  71              	.L6:
  33:.\lantern.c   ****         }
  34:.\lantern.c   ****         for (disp = 0; disp < NUM_SCREENS; disp ++ ) {
  35:.\lantern.c   ****             DMA_Wait_For_Completion(disp);
  72              		.loc 1 35 0 is_stmt 1 discriminator 3
  73 002a 2046     		mov	r0, r4
  74 002c FFF7FEFF 		bl	DMA_Wait_For_Completion
  75              	.LVL10:
  36:.\lantern.c   ****             drawRect(disp, 0, 319, 0, 59, 0);
  76              		.loc 1 36 0 discriminator 3
ARM GAS  C:\Users\ericz\AppData\Local\Temp\ccRQlSId.s 			page 3


  77 0030 3B23     		movs	r3, #59
  78 0032 0093     		str	r3, [sp]
  79 0034 0023     		movs	r3, #0
  80 0036 0193     		str	r3, [sp, #4]
  81 0038 2046     		mov	r0, r4
  82 003a 1946     		mov	r1, r3
  83 003c 40F23F12 		movw	r2, #319
  84 0040 FFF7FEFF 		bl	drawRect
  85              	.LVL11:
  34:.\lantern.c   ****             DMA_Wait_For_Completion(disp);
  86              		.loc 1 34 0 discriminator 3
  87 0044 0134     		adds	r4, r4, #1
  88              	.LVL12:
  89 0046 E4B2     		uxtb	r4, r4
  90              	.LVL13:
  91              	.L5:
  34:.\lantern.c   ****             DMA_Wait_For_Completion(disp);
  92              		.loc 1 34 0 is_stmt 0 discriminator 1
  93 0048 032C     		cmp	r4, #3
  94 004a EED9     		bls	.L6
  95 004c 0024     		movs	r4, #0
  96              	.LVL14:
  97 004e 11E0     		b	.L7
  98              	.LVL15:
  99              	.L8:
  37:.\lantern.c   ****         }
  38:.\lantern.c   ****         for (disp = 0; disp < NUM_SCREENS; disp ++ ) {
  39:.\lantern.c   ****             DMA_Wait_For_Completion(disp);
 100              		.loc 1 39 0 is_stmt 1 discriminator 3
 101 0050 2046     		mov	r0, r4
 102 0052 FFF7FEFF 		bl	DMA_Wait_For_Completion
 103              	.LVL16:
  40:.\lantern.c   ****             drawRect(disp, 40, 279, 120, 419, 0x2E59);
 104              		.loc 1 40 0 discriminator 3
 105 0056 40F2A313 		movw	r3, #419
 106 005a 0093     		str	r3, [sp]
 107 005c 42F65963 		movw	r3, #11865
 108 0060 0193     		str	r3, [sp, #4]
 109 0062 2046     		mov	r0, r4
 110 0064 2821     		movs	r1, #40
 111 0066 40F21712 		movw	r2, #279
 112 006a 7823     		movs	r3, #120
 113 006c FFF7FEFF 		bl	drawRect
 114              	.LVL17:
  38:.\lantern.c   ****             DMA_Wait_For_Completion(disp);
 115              		.loc 1 38 0 discriminator 3
 116 0070 0134     		adds	r4, r4, #1
 117              	.LVL18:
 118 0072 E4B2     		uxtb	r4, r4
 119              	.LVL19:
 120              	.L7:
  38:.\lantern.c   ****             DMA_Wait_For_Completion(disp);
 121              		.loc 1 38 0 is_stmt 0 discriminator 1
 122 0074 032C     		cmp	r4, #3
 123 0076 EBD9     		bls	.L8
 124 0078 0024     		movs	r4, #0
 125              	.LVL20:
ARM GAS  C:\Users\ericz\AppData\Local\Temp\ccRQlSId.s 			page 4


 126 007a 0FE0     		b	.L9
 127              	.LVL21:
 128              	.L10:
  41:.\lantern.c   ****         }
  42:.\lantern.c   ****         for (disp = 0; disp < NUM_SCREENS; disp ++ ) {
  43:.\lantern.c   ****             DMA_Wait_For_Completion(disp);
 129              		.loc 1 43 0 is_stmt 1 discriminator 3
 130 007c 2046     		mov	r0, r4
 131 007e FFF7FEFF 		bl	DMA_Wait_For_Completion
 132              	.LVL22:
  44:.\lantern.c   ****             drawRect(disp, 40, 99, 120, 179, 0x04B3);
 133              		.loc 1 44 0 discriminator 3
 134 0082 B323     		movs	r3, #179
 135 0084 0093     		str	r3, [sp]
 136 0086 40F2B343 		movw	r3, #1203
 137 008a 0193     		str	r3, [sp, #4]
 138 008c 2046     		mov	r0, r4
 139 008e 2821     		movs	r1, #40
 140 0090 6322     		movs	r2, #99
 141 0092 7823     		movs	r3, #120
 142 0094 FFF7FEFF 		bl	drawRect
 143              	.LVL23:
  42:.\lantern.c   ****             DMA_Wait_For_Completion(disp);
 144              		.loc 1 42 0 discriminator 3
 145 0098 0134     		adds	r4, r4, #1
 146              	.LVL24:
 147 009a E4B2     		uxtb	r4, r4
 148              	.LVL25:
 149              	.L9:
  42:.\lantern.c   ****             DMA_Wait_For_Completion(disp);
 150              		.loc 1 42 0 is_stmt 0 discriminator 1
 151 009c 032C     		cmp	r4, #3
 152 009e EDD9     		bls	.L10
 153 00a0 0024     		movs	r4, #0
 154              	.LVL26:
 155 00a2 10E0     		b	.L11
 156              	.LVL27:
 157              	.L12:
  45:.\lantern.c   ****         }
  46:.\lantern.c   ****         for (disp = 0; disp < NUM_SCREENS; disp ++ ) {
  47:.\lantern.c   ****             DMA_Wait_For_Completion(disp);
 158              		.loc 1 47 0 is_stmt 1 discriminator 3
 159 00a4 2046     		mov	r0, r4
 160 00a6 FFF7FEFF 		bl	DMA_Wait_For_Completion
 161              	.LVL28:
  48:.\lantern.c   ****             drawRect(disp, 220, 279, 120, 179, 0x04B3);
 162              		.loc 1 48 0 discriminator 3
 163 00aa B323     		movs	r3, #179
 164 00ac 0093     		str	r3, [sp]
 165 00ae 40F2B343 		movw	r3, #1203
 166 00b2 0193     		str	r3, [sp, #4]
 167 00b4 2046     		mov	r0, r4
 168 00b6 DC21     		movs	r1, #220
 169 00b8 40F21712 		movw	r2, #279
 170 00bc 7823     		movs	r3, #120
 171 00be FFF7FEFF 		bl	drawRect
 172              	.LVL29:
ARM GAS  C:\Users\ericz\AppData\Local\Temp\ccRQlSId.s 			page 5


  46:.\lantern.c   ****             DMA_Wait_For_Completion(disp);
 173              		.loc 1 46 0 discriminator 3
 174 00c2 0134     		adds	r4, r4, #1
 175              	.LVL30:
 176 00c4 E4B2     		uxtb	r4, r4
 177              	.LVL31:
 178              	.L11:
  46:.\lantern.c   ****             DMA_Wait_For_Completion(disp);
 179              		.loc 1 46 0 is_stmt 0 discriminator 1
 180 00c6 032C     		cmp	r4, #3
 181 00c8 ECD9     		bls	.L12
 182 00ca 0024     		movs	r4, #0
 183              	.LVL32:
 184 00cc 0FE0     		b	.L13
 185              	.LVL33:
 186              	.L14:
  49:.\lantern.c   ****         }
  50:.\lantern.c   ****         for (disp = 0; disp < NUM_SCREENS; disp ++ ) {
  51:.\lantern.c   ****             DMA_Wait_For_Completion(disp);
 187              		.loc 1 51 0 is_stmt 1 discriminator 3
 188 00ce 2046     		mov	r0, r4
 189 00d0 FFF7FEFF 		bl	DMA_Wait_For_Completion
 190              	.LVL34:
  52:.\lantern.c   ****             drawRect(disp, 100, 219, 180, 239, 0x779E);
 191              		.loc 1 52 0 discriminator 3
 192 00d4 EF23     		movs	r3, #239
 193 00d6 0093     		str	r3, [sp]
 194 00d8 47F29E73 		movw	r3, #30622
 195 00dc 0193     		str	r3, [sp, #4]
 196 00de 2046     		mov	r0, r4
 197 00e0 6421     		movs	r1, #100
 198 00e2 DB22     		movs	r2, #219
 199 00e4 B423     		movs	r3, #180
 200 00e6 FFF7FEFF 		bl	drawRect
 201              	.LVL35:
  50:.\lantern.c   ****             DMA_Wait_For_Completion(disp);
 202              		.loc 1 50 0 discriminator 3
 203 00ea 0134     		adds	r4, r4, #1
 204              	.LVL36:
 205 00ec E4B2     		uxtb	r4, r4
 206              	.LVL37:
 207              	.L13:
  50:.\lantern.c   ****             DMA_Wait_For_Completion(disp);
 208              		.loc 1 50 0 is_stmt 0 discriminator 1
 209 00ee 032C     		cmp	r4, #3
 210 00f0 EDD9     		bls	.L14
 211 00f2 0024     		movs	r4, #0
 212              	.LVL38:
 213 00f4 11E0     		b	.L15
 214              	.LVL39:
 215              	.L16:
  53:.\lantern.c   ****         }
  54:.\lantern.c   ****         for (disp = 0; disp < NUM_SCREENS; disp ++ ) {
  55:.\lantern.c   ****             DMA_Wait_For_Completion(disp);
 216              		.loc 1 55 0 is_stmt 1 discriminator 3
 217 00f6 2046     		mov	r0, r4
 218 00f8 FFF7FEFF 		bl	DMA_Wait_For_Completion
ARM GAS  C:\Users\ericz\AppData\Local\Temp\ccRQlSId.s 			page 6


 219              	.LVL40:
  56:.\lantern.c   ****             drawRect(disp, 100, 219, 360, 419, 0x779E);
 220              		.loc 1 56 0 discriminator 3
 221 00fc 40F2A313 		movw	r3, #419
 222 0100 0093     		str	r3, [sp]
 223 0102 47F29E73 		movw	r3, #30622
 224 0106 0193     		str	r3, [sp, #4]
 225 0108 2046     		mov	r0, r4
 226 010a 6421     		movs	r1, #100
 227 010c DB22     		movs	r2, #219
 228 010e 4FF4B473 		mov	r3, #360
 229 0112 FFF7FEFF 		bl	drawRect
 230              	.LVL41:
  54:.\lantern.c   ****             DMA_Wait_For_Completion(disp);
 231              		.loc 1 54 0 discriminator 3
 232 0116 0134     		adds	r4, r4, #1
 233              	.LVL42:
 234 0118 E4B2     		uxtb	r4, r4
 235              	.LVL43:
 236              	.L15:
  54:.\lantern.c   ****             DMA_Wait_For_Completion(disp);
 237              		.loc 1 54 0 is_stmt 0 discriminator 1
 238 011a 032C     		cmp	r4, #3
 239 011c EBD9     		bls	.L16
 240 011e 0024     		movs	r4, #0
 241              	.LVL44:
 242 0120 10E0     		b	.L17
 243              	.LVL45:
 244              	.L18:
  57:.\lantern.c   ****         }
  58:.\lantern.c   ****         for (disp = 0; disp < NUM_SCREENS; disp ++ ) {
  59:.\lantern.c   ****             DMA_Wait_For_Completion(disp);
 245              		.loc 1 59 0 is_stmt 1 discriminator 3
 246 0122 2046     		mov	r0, r4
 247 0124 FFF7FEFF 		bl	DMA_Wait_For_Completion
 248              	.LVL46:
  60:.\lantern.c   ****             drawRect(disp, 40, 99, 240, 359, 0x779E);
 249              		.loc 1 60 0 discriminator 3
 250 0128 40F26713 		movw	r3, #359
 251 012c 0093     		str	r3, [sp]
 252 012e 47F29E73 		movw	r3, #30622
 253 0132 0193     		str	r3, [sp, #4]
 254 0134 2046     		mov	r0, r4
 255 0136 2821     		movs	r1, #40
 256 0138 6322     		movs	r2, #99
 257 013a F023     		movs	r3, #240
 258 013c FFF7FEFF 		bl	drawRect
 259              	.LVL47:
  58:.\lantern.c   ****             DMA_Wait_For_Completion(disp);
 260              		.loc 1 58 0 discriminator 3
 261 0140 0134     		adds	r4, r4, #1
 262              	.LVL48:
 263 0142 E4B2     		uxtb	r4, r4
 264              	.LVL49:
 265              	.L17:
  58:.\lantern.c   ****             DMA_Wait_For_Completion(disp);
 266              		.loc 1 58 0 is_stmt 0 discriminator 1
ARM GAS  C:\Users\ericz\AppData\Local\Temp\ccRQlSId.s 			page 7


 267 0144 032C     		cmp	r4, #3
 268 0146 ECD9     		bls	.L18
 269 0148 0024     		movs	r4, #0
 270              	.LVL50:
 271 014a 11E0     		b	.L19
 272              	.LVL51:
 273              	.L20:
  61:.\lantern.c   ****         }
  62:.\lantern.c   ****         for (disp = 0; disp < NUM_SCREENS; disp ++ ) {
  63:.\lantern.c   ****             DMA_Wait_For_Completion(disp);
 274              		.loc 1 63 0 is_stmt 1 discriminator 3
 275 014c 2046     		mov	r0, r4
 276 014e FFF7FEFF 		bl	DMA_Wait_For_Completion
 277              	.LVL52:
  64:.\lantern.c   ****             drawRect(disp, 220, 279, 240, 359, 0x779E);
 278              		.loc 1 64 0 discriminator 3
 279 0152 40F26713 		movw	r3, #359
 280 0156 0093     		str	r3, [sp]
 281 0158 47F29E73 		movw	r3, #30622
 282 015c 0193     		str	r3, [sp, #4]
 283 015e 2046     		mov	r0, r4
 284 0160 DC21     		movs	r1, #220
 285 0162 40F21712 		movw	r2, #279
 286 0166 F023     		movs	r3, #240
 287 0168 FFF7FEFF 		bl	drawRect
 288              	.LVL53:
  62:.\lantern.c   ****             DMA_Wait_For_Completion(disp);
 289              		.loc 1 62 0 discriminator 3
 290 016c 0134     		adds	r4, r4, #1
 291              	.LVL54:
 292 016e E4B2     		uxtb	r4, r4
 293              	.LVL55:
 294              	.L19:
  62:.\lantern.c   ****             DMA_Wait_For_Completion(disp);
 295              		.loc 1 62 0 is_stmt 0 discriminator 1
 296 0170 032C     		cmp	r4, #3
 297 0172 EBD9     		bls	.L20
 298 0174 0024     		movs	r4, #0
 299              	.LVL56:
 300 0176 10E0     		b	.L21
 301              	.LVL57:
 302              	.L22:
  65:.\lantern.c   ****         }
  66:.\lantern.c   ****         for (disp = 0; disp < NUM_SCREENS; disp ++ ) {
  67:.\lantern.c   ****             DMA_Wait_For_Completion(disp);
 303              		.loc 1 67 0 is_stmt 1 discriminator 3
 304 0178 2046     		mov	r0, r4
 305 017a FFF7FEFF 		bl	DMA_Wait_For_Completion
 306              	.LVL58:
  68:.\lantern.c   ****             drawRect(disp, 100, 219, 240, 359, 0xFFFF);
 307              		.loc 1 68 0 discriminator 3
 308 017e 40F26713 		movw	r3, #359
 309 0182 0093     		str	r3, [sp]
 310 0184 4FF6FF73 		movw	r3, #65535
 311 0188 0193     		str	r3, [sp, #4]
 312 018a 2046     		mov	r0, r4
 313 018c 6421     		movs	r1, #100
ARM GAS  C:\Users\ericz\AppData\Local\Temp\ccRQlSId.s 			page 8


 314 018e DB22     		movs	r2, #219
 315 0190 F023     		movs	r3, #240
 316 0192 FFF7FEFF 		bl	drawRect
 317              	.LVL59:
  66:.\lantern.c   ****             DMA_Wait_For_Completion(disp);
 318              		.loc 1 66 0 discriminator 3
 319 0196 0134     		adds	r4, r4, #1
 320              	.LVL60:
 321 0198 E4B2     		uxtb	r4, r4
 322              	.LVL61:
 323              	.L21:
  66:.\lantern.c   ****             DMA_Wait_For_Completion(disp);
 324              		.loc 1 66 0 is_stmt 0 discriminator 1
 325 019a 032C     		cmp	r4, #3
 326 019c ECD9     		bls	.L22
 327 019e 0024     		movs	r4, #0
 328              	.LVL62:
 329 01a0 10E0     		b	.L23
 330              	.LVL63:
 331              	.L24:
  69:.\lantern.c   ****         }
  70:.\lantern.c   ****         for (disp = 0; disp < NUM_SCREENS; disp ++ ) {
  71:.\lantern.c   ****             DMA_Wait_For_Completion(disp);
 332              		.loc 1 71 0 is_stmt 1 discriminator 3
 333 01a2 2046     		mov	r0, r4
 334 01a4 FFF7FEFF 		bl	DMA_Wait_For_Completion
 335              	.LVL64:
  72:.\lantern.c   ****             drawRect(disp, 100, 159, 240, 299, 0xCFFF);
 336              		.loc 1 72 0 discriminator 3
 337 01a8 40F22B13 		movw	r3, #299
 338 01ac 0093     		str	r3, [sp]
 339 01ae 4CF6FF73 		movw	r3, #53247
 340 01b2 0193     		str	r3, [sp, #4]
 341 01b4 2046     		mov	r0, r4
 342 01b6 6421     		movs	r1, #100
 343 01b8 9F22     		movs	r2, #159
 344 01ba F023     		movs	r3, #240
 345 01bc FFF7FEFF 		bl	drawRect
 346              	.LVL65:
  70:.\lantern.c   ****             DMA_Wait_For_Completion(disp);
 347              		.loc 1 70 0 discriminator 3
 348 01c0 0134     		adds	r4, r4, #1
 349              	.LVL66:
 350 01c2 E4B2     		uxtb	r4, r4
 351              	.LVL67:
 352              	.L23:
  70:.\lantern.c   ****             DMA_Wait_For_Completion(disp);
 353              		.loc 1 70 0 is_stmt 0 discriminator 1
 354 01c4 032C     		cmp	r4, #3
 355 01c6 ECD9     		bls	.L24
 356 01c8 0024     		movs	r4, #0
 357              	.LVL68:
 358 01ca 11E0     		b	.L25
 359              	.LVL69:
 360              	.L26:
  73:.\lantern.c   ****         }
  74:.\lantern.c   ****         for (disp = 0; disp < NUM_SCREENS; disp ++ ) {
ARM GAS  C:\Users\ericz\AppData\Local\Temp\ccRQlSId.s 			page 9


  75:.\lantern.c   ****             DMA_Wait_For_Completion(disp);
 361              		.loc 1 75 0 is_stmt 1 discriminator 3
 362 01cc 2046     		mov	r0, r4
 363 01ce FFF7FEFF 		bl	DMA_Wait_For_Completion
 364              	.LVL70:
  76:.\lantern.c   ****             drawRect(disp, 160, 219, 300, 359, 0xCFFF);
 365              		.loc 1 76 0 discriminator 3
 366 01d2 40F26713 		movw	r3, #359
 367 01d6 0093     		str	r3, [sp]
 368 01d8 4CF6FF73 		movw	r3, #53247
 369 01dc 0193     		str	r3, [sp, #4]
 370 01de 2046     		mov	r0, r4
 371 01e0 A021     		movs	r1, #160
 372 01e2 DB22     		movs	r2, #219
 373 01e4 4FF49673 		mov	r3, #300
 374 01e8 FFF7FEFF 		bl	drawRect
 375              	.LVL71:
  74:.\lantern.c   ****             DMA_Wait_For_Completion(disp);
 376              		.loc 1 74 0 discriminator 3
 377 01ec 0134     		adds	r4, r4, #1
 378              	.LVL72:
 379 01ee E4B2     		uxtb	r4, r4
 380              	.LVL73:
 381              	.L25:
  74:.\lantern.c   ****             DMA_Wait_For_Completion(disp);
 382              		.loc 1 74 0 is_stmt 0 discriminator 1
 383 01f0 032C     		cmp	r4, #3
 384 01f2 EBD9     		bls	.L26
 385 01f4 48E1     		b	.L1
 386              	.L28:
  77:.\lantern.c   ****         }
  78:.\lantern.c   ****         
  79:.\lantern.c   ****     } else {                                        // orange lantern
  80:.\lantern.c   ****         for (disp = 0; disp < NUM_SCREENS; disp ++ ) {
  81:.\lantern.c   ****             DMA_Wait_For_Completion(disp);
 387              		.loc 1 81 0 is_stmt 1 discriminator 3
 388 01f6 2046     		mov	r0, r4
 389 01f8 FFF7FEFF 		bl	DMA_Wait_For_Completion
 390              	.LVL74:
  82:.\lantern.c   ****             clearScreen(disp, 0x4A8C);
 391              		.loc 1 82 0 discriminator 3
 392 01fc 2046     		mov	r0, r4
 393 01fe 44F68C21 		movw	r1, #19084
 394 0202 FFF7FEFF 		bl	clearScreen
 395              	.LVL75:
  80:.\lantern.c   ****             DMA_Wait_For_Completion(disp);
 396              		.loc 1 80 0 discriminator 3
 397 0206 0134     		adds	r4, r4, #1
 398              	.LVL76:
 399 0208 E4B2     		uxtb	r4, r4
 400              	.LVL77:
 401              	.L3:
  80:.\lantern.c   ****             DMA_Wait_For_Completion(disp);
 402              		.loc 1 80 0 is_stmt 0 discriminator 1
 403 020a 032C     		cmp	r4, #3
 404 020c F3D9     		bls	.L28
 405 020e 0024     		movs	r4, #0
ARM GAS  C:\Users\ericz\AppData\Local\Temp\ccRQlSId.s 			page 10


 406              	.LVL78:
 407 0210 11E0     		b	.L29
 408              	.LVL79:
 409              	.L30:
  83:.\lantern.c   ****         }
  84:.\lantern.c   ****         for (disp = 0; disp < NUM_SCREENS; disp ++ ) {
  85:.\lantern.c   ****             DMA_Wait_For_Completion(disp);
 410              		.loc 1 85 0 is_stmt 1 discriminator 3
 411 0212 2046     		mov	r0, r4
 412 0214 FFF7FEFF 		bl	DMA_Wait_For_Completion
 413              	.LVL80:
  86:.\lantern.c   ****             drawRect(disp, 0, 319, 120, 419, 0x8204);
 414              		.loc 1 86 0 discriminator 3
 415 0218 40F2A313 		movw	r3, #419
 416 021c 0093     		str	r3, [sp]
 417 021e 48F20423 		movw	r3, #33284
 418 0222 0193     		str	r3, [sp, #4]
 419 0224 2046     		mov	r0, r4
 420 0226 0021     		movs	r1, #0
 421 0228 40F23F12 		movw	r2, #319
 422 022c 7823     		movs	r3, #120
 423 022e FFF7FEFF 		bl	drawRect
 424              	.LVL81:
  84:.\lantern.c   ****             DMA_Wait_For_Completion(disp);
 425              		.loc 1 84 0 discriminator 3
 426 0232 0134     		adds	r4, r4, #1
 427              	.LVL82:
 428 0234 E4B2     		uxtb	r4, r4
 429              	.LVL83:
 430              	.L29:
  84:.\lantern.c   ****             DMA_Wait_For_Completion(disp);
 431              		.loc 1 84 0 is_stmt 0 discriminator 1
 432 0236 032C     		cmp	r4, #3
 433 0238 EBD9     		bls	.L30
 434 023a 0024     		movs	r4, #0
 435              	.LVL84:
 436 023c 0EE0     		b	.L31
 437              	.LVL85:
 438              	.L32:
  87:.\lantern.c   ****         }
  88:.\lantern.c   ****         for (disp = 0; disp < NUM_SCREENS; disp ++ ) {
  89:.\lantern.c   ****             DMA_Wait_For_Completion(disp);
 439              		.loc 1 89 0 is_stmt 1 discriminator 3
 440 023e 2046     		mov	r0, r4
 441 0240 FFF7FEFF 		bl	DMA_Wait_For_Completion
 442              	.LVL86:
  90:.\lantern.c   ****             drawRect(disp, 0, 319, 0, 59, 0);
 443              		.loc 1 90 0 discriminator 3
 444 0244 3B23     		movs	r3, #59
 445 0246 0093     		str	r3, [sp]
 446 0248 0023     		movs	r3, #0
 447 024a 0193     		str	r3, [sp, #4]
 448 024c 2046     		mov	r0, r4
 449 024e 1946     		mov	r1, r3
 450 0250 40F23F12 		movw	r2, #319
 451 0254 FFF7FEFF 		bl	drawRect
 452              	.LVL87:
ARM GAS  C:\Users\ericz\AppData\Local\Temp\ccRQlSId.s 			page 11


  88:.\lantern.c   ****             DMA_Wait_For_Completion(disp);
 453              		.loc 1 88 0 discriminator 3
 454 0258 0134     		adds	r4, r4, #1
 455              	.LVL88:
 456 025a E4B2     		uxtb	r4, r4
 457              	.LVL89:
 458              	.L31:
  88:.\lantern.c   ****             DMA_Wait_For_Completion(disp);
 459              		.loc 1 88 0 is_stmt 0 discriminator 1
 460 025c 032C     		cmp	r4, #3
 461 025e EED9     		bls	.L32
 462 0260 0024     		movs	r4, #0
 463              	.LVL90:
 464 0262 11E0     		b	.L33
 465              	.LVL91:
 466              	.L34:
  91:.\lantern.c   ****         }
  92:.\lantern.c   ****         for (disp = 0; disp < NUM_SCREENS; disp ++ ) {
  93:.\lantern.c   ****             DMA_Wait_For_Completion(disp);
 467              		.loc 1 93 0 is_stmt 1 discriminator 3
 468 0264 2046     		mov	r0, r4
 469 0266 FFF7FEFF 		bl	DMA_Wait_For_Completion
 470              	.LVL92:
  94:.\lantern.c   ****             drawRect(disp, 0, 319, 180, 359, 0x8A86);
 471              		.loc 1 94 0 discriminator 3
 472 026a 40F26713 		movw	r3, #359
 473 026e 0093     		str	r3, [sp]
 474 0270 48F68623 		movw	r3, #35462
 475 0274 0193     		str	r3, [sp, #4]
 476 0276 2046     		mov	r0, r4
 477 0278 0021     		movs	r1, #0
 478 027a 40F23F12 		movw	r2, #319
 479 027e B423     		movs	r3, #180
 480 0280 FFF7FEFF 		bl	drawRect
 481              	.LVL93:
  92:.\lantern.c   ****             DMA_Wait_For_Completion(disp);
 482              		.loc 1 92 0 discriminator 3
 483 0284 0134     		adds	r4, r4, #1
 484              	.LVL94:
 485 0286 E4B2     		uxtb	r4, r4
 486              	.LVL95:
 487              	.L33:
  92:.\lantern.c   ****             DMA_Wait_For_Completion(disp);
 488              		.loc 1 92 0 is_stmt 0 discriminator 1
 489 0288 032C     		cmp	r4, #3
 490 028a EBD9     		bls	.L34
 491 028c 0024     		movs	r4, #0
 492              	.LVL96:
 493 028e 11E0     		b	.L35
 494              	.LVL97:
 495              	.L36:
  95:.\lantern.c   ****         }
  96:.\lantern.c   ****         for (disp = 0; disp < NUM_SCREENS; disp ++ ) {
  97:.\lantern.c   ****             DMA_Wait_For_Completion(disp);
 496              		.loc 1 97 0 is_stmt 1 discriminator 3
 497 0290 2046     		mov	r0, r4
 498 0292 FFF7FEFF 		bl	DMA_Wait_For_Completion
ARM GAS  C:\Users\ericz\AppData\Local\Temp\ccRQlSId.s 			page 12


 499              	.LVL98:
  98:.\lantern.c   ****             drawRect(disp, 40, 279, 120, 420, 0xEC89);
 500              		.loc 1 98 0 discriminator 3
 501 0296 4FF4D273 		mov	r3, #420
 502 029a 0093     		str	r3, [sp]
 503 029c 4EF68943 		movw	r3, #60553
 504 02a0 0193     		str	r3, [sp, #4]
 505 02a2 2046     		mov	r0, r4
 506 02a4 2821     		movs	r1, #40
 507 02a6 40F21712 		movw	r2, #279
 508 02aa 7823     		movs	r3, #120
 509 02ac FFF7FEFF 		bl	drawRect
 510              	.LVL99:
  96:.\lantern.c   ****             DMA_Wait_For_Completion(disp);
 511              		.loc 1 96 0 discriminator 3
 512 02b0 0134     		adds	r4, r4, #1
 513              	.LVL100:
 514 02b2 E4B2     		uxtb	r4, r4
 515              	.LVL101:
 516              	.L35:
  96:.\lantern.c   ****             DMA_Wait_For_Completion(disp);
 517              		.loc 1 96 0 is_stmt 0 discriminator 1
 518 02b4 032C     		cmp	r4, #3
 519 02b6 EBD9     		bls	.L36
 520 02b8 0024     		movs	r4, #0
 521              	.LVL102:
 522 02ba 0FE0     		b	.L37
 523              	.LVL103:
 524              	.L38:
  99:.\lantern.c   ****         }
 100:.\lantern.c   ****         for (disp = 0; disp < NUM_SCREENS; disp ++ ) {
 101:.\lantern.c   ****             DMA_Wait_For_Completion(disp);
 525              		.loc 1 101 0 is_stmt 1 discriminator 3
 526 02bc 2046     		mov	r0, r4
 527 02be FFF7FEFF 		bl	DMA_Wait_For_Completion
 528              	.LVL104:
 102:.\lantern.c   ****             drawRect(disp, 40, 99, 120, 179, 0xC304);
 529              		.loc 1 102 0 discriminator 3
 530 02c2 B323     		movs	r3, #179
 531 02c4 0093     		str	r3, [sp]
 532 02c6 4CF20433 		movw	r3, #49924
 533 02ca 0193     		str	r3, [sp, #4]
 534 02cc 2046     		mov	r0, r4
 535 02ce 2821     		movs	r1, #40
 536 02d0 6322     		movs	r2, #99
 537 02d2 7823     		movs	r3, #120
 538 02d4 FFF7FEFF 		bl	drawRect
 539              	.LVL105:
 100:.\lantern.c   ****             DMA_Wait_For_Completion(disp);
 540              		.loc 1 100 0 discriminator 3
 541 02d8 0134     		adds	r4, r4, #1
 542              	.LVL106:
 543 02da E4B2     		uxtb	r4, r4
 544              	.LVL107:
 545              	.L37:
 100:.\lantern.c   ****             DMA_Wait_For_Completion(disp);
 546              		.loc 1 100 0 is_stmt 0 discriminator 1
ARM GAS  C:\Users\ericz\AppData\Local\Temp\ccRQlSId.s 			page 13


 547 02dc 032C     		cmp	r4, #3
 548 02de EDD9     		bls	.L38
 549 02e0 0024     		movs	r4, #0
 550              	.LVL108:
 551 02e2 10E0     		b	.L39
 552              	.LVL109:
 553              	.L40:
 103:.\lantern.c   ****         }
 104:.\lantern.c   ****         for (disp = 0; disp < NUM_SCREENS; disp ++ ) {
 105:.\lantern.c   ****             DMA_Wait_For_Completion(disp);
 554              		.loc 1 105 0 is_stmt 1 discriminator 3
 555 02e4 2046     		mov	r0, r4
 556 02e6 FFF7FEFF 		bl	DMA_Wait_For_Completion
 557              	.LVL110:
 106:.\lantern.c   ****             drawRect(disp, 220, 279, 120, 179, 0xC304);
 558              		.loc 1 106 0 discriminator 3
 559 02ea B323     		movs	r3, #179
 560 02ec 0093     		str	r3, [sp]
 561 02ee 4CF20433 		movw	r3, #49924
 562 02f2 0193     		str	r3, [sp, #4]
 563 02f4 2046     		mov	r0, r4
 564 02f6 DC21     		movs	r1, #220
 565 02f8 40F21712 		movw	r2, #279
 566 02fc 7823     		movs	r3, #120
 567 02fe FFF7FEFF 		bl	drawRect
 568              	.LVL111:
 104:.\lantern.c   ****             DMA_Wait_For_Completion(disp);
 569              		.loc 1 104 0 discriminator 3
 570 0302 0134     		adds	r4, r4, #1
 571              	.LVL112:
 572 0304 E4B2     		uxtb	r4, r4
 573              	.LVL113:
 574              	.L39:
 104:.\lantern.c   ****             DMA_Wait_For_Completion(disp);
 575              		.loc 1 104 0 is_stmt 0 discriminator 1
 576 0306 032C     		cmp	r4, #3
 577 0308 ECD9     		bls	.L40
 578 030a 0024     		movs	r4, #0
 579              	.LVL114:
 580 030c 0FE0     		b	.L41
 581              	.LVL115:
 582              	.L42:
 107:.\lantern.c   ****         }
 108:.\lantern.c   ****         for (disp = 0; disp < NUM_SCREENS; disp ++ ) {
 109:.\lantern.c   ****             DMA_Wait_For_Completion(disp);
 583              		.loc 1 109 0 is_stmt 1 discriminator 3
 584 030e 2046     		mov	r0, r4
 585 0310 FFF7FEFF 		bl	DMA_Wait_For_Completion
 586              	.LVL116:
 110:.\lantern.c   ****             drawRect(disp, 100, 219, 180, 239, 0xF64C);
 587              		.loc 1 110 0 discriminator 3
 588 0314 EF23     		movs	r3, #239
 589 0316 0093     		str	r3, [sp]
 590 0318 4FF24C63 		movw	r3, #63052
 591 031c 0193     		str	r3, [sp, #4]
 592 031e 2046     		mov	r0, r4
 593 0320 6421     		movs	r1, #100
ARM GAS  C:\Users\ericz\AppData\Local\Temp\ccRQlSId.s 			page 14


 594 0322 DB22     		movs	r2, #219
 595 0324 B423     		movs	r3, #180
 596 0326 FFF7FEFF 		bl	drawRect
 597              	.LVL117:
 108:.\lantern.c   ****             DMA_Wait_For_Completion(disp);
 598              		.loc 1 108 0 discriminator 3
 599 032a 0134     		adds	r4, r4, #1
 600              	.LVL118:
 601 032c E4B2     		uxtb	r4, r4
 602              	.LVL119:
 603              	.L41:
 108:.\lantern.c   ****             DMA_Wait_For_Completion(disp);
 604              		.loc 1 108 0 is_stmt 0 discriminator 1
 605 032e 032C     		cmp	r4, #3
 606 0330 EDD9     		bls	.L42
 607 0332 0024     		movs	r4, #0
 608              	.LVL120:
 609 0334 11E0     		b	.L43
 610              	.LVL121:
 611              	.L44:
 111:.\lantern.c   ****         }
 112:.\lantern.c   ****         for (disp = 0; disp < NUM_SCREENS; disp ++ ) {
 113:.\lantern.c   ****             DMA_Wait_For_Completion(disp);
 612              		.loc 1 113 0 is_stmt 1 discriminator 3
 613 0336 2046     		mov	r0, r4
 614 0338 FFF7FEFF 		bl	DMA_Wait_For_Completion
 615              	.LVL122:
 114:.\lantern.c   ****             drawRect(disp, 100, 219, 360, 419, 0xF64C);
 616              		.loc 1 114 0 discriminator 3
 617 033c 40F2A313 		movw	r3, #419
 618 0340 0093     		str	r3, [sp]
 619 0342 4FF24C63 		movw	r3, #63052
 620 0346 0193     		str	r3, [sp, #4]
 621 0348 2046     		mov	r0, r4
 622 034a 6421     		movs	r1, #100
 623 034c DB22     		movs	r2, #219
 624 034e 4FF4B473 		mov	r3, #360
 625 0352 FFF7FEFF 		bl	drawRect
 626              	.LVL123:
 112:.\lantern.c   ****             DMA_Wait_For_Completion(disp);
 627              		.loc 1 112 0 discriminator 3
 628 0356 0134     		adds	r4, r4, #1
 629              	.LVL124:
 630 0358 E4B2     		uxtb	r4, r4
 631              	.LVL125:
 632              	.L43:
 112:.\lantern.c   ****             DMA_Wait_For_Completion(disp);
 633              		.loc 1 112 0 is_stmt 0 discriminator 1
 634 035a 032C     		cmp	r4, #3
 635 035c EBD9     		bls	.L44
 636 035e 0024     		movs	r4, #0
 637              	.LVL126:
 638 0360 10E0     		b	.L45
 639              	.LVL127:
 640              	.L46:
 115:.\lantern.c   ****         }
 116:.\lantern.c   ****         for (disp = 0; disp < NUM_SCREENS; disp ++ ) {
ARM GAS  C:\Users\ericz\AppData\Local\Temp\ccRQlSId.s 			page 15


 117:.\lantern.c   ****             DMA_Wait_For_Completion(disp);
 641              		.loc 1 117 0 is_stmt 1 discriminator 3
 642 0362 2046     		mov	r0, r4
 643 0364 FFF7FEFF 		bl	DMA_Wait_For_Completion
 644              	.LVL128:
 118:.\lantern.c   ****             drawRect(disp, 40, 99, 240, 359, 0xF64C);
 645              		.loc 1 118 0 discriminator 3
 646 0368 40F26713 		movw	r3, #359
 647 036c 0093     		str	r3, [sp]
 648 036e 4FF24C63 		movw	r3, #63052
 649 0372 0193     		str	r3, [sp, #4]
 650 0374 2046     		mov	r0, r4
 651 0376 2821     		movs	r1, #40
 652 0378 6322     		movs	r2, #99
 653 037a F023     		movs	r3, #240
 654 037c FFF7FEFF 		bl	drawRect
 655              	.LVL129:
 116:.\lantern.c   ****             DMA_Wait_For_Completion(disp);
 656              		.loc 1 116 0 discriminator 3
 657 0380 0134     		adds	r4, r4, #1
 658              	.LVL130:
 659 0382 E4B2     		uxtb	r4, r4
 660              	.LVL131:
 661              	.L45:
 116:.\lantern.c   ****             DMA_Wait_For_Completion(disp);
 662              		.loc 1 116 0 is_stmt 0 discriminator 1
 663 0384 032C     		cmp	r4, #3
 664 0386 ECD9     		bls	.L46
 665 0388 0024     		movs	r4, #0
 666              	.LVL132:
 667 038a 11E0     		b	.L47
 668              	.LVL133:
 669              	.L48:
 119:.\lantern.c   ****         }
 120:.\lantern.c   ****         for (disp = 0; disp < NUM_SCREENS; disp ++ ) {
 121:.\lantern.c   ****             DMA_Wait_For_Completion(disp);
 670              		.loc 1 121 0 is_stmt 1 discriminator 3
 671 038c 2046     		mov	r0, r4
 672 038e FFF7FEFF 		bl	DMA_Wait_For_Completion
 673              	.LVL134:
 122:.\lantern.c   ****             drawRect(disp, 220, 279, 240, 359, 0xF64C);
 674              		.loc 1 122 0 discriminator 3
 675 0392 40F26713 		movw	r3, #359
 676 0396 0093     		str	r3, [sp]
 677 0398 4FF24C63 		movw	r3, #63052
 678 039c 0193     		str	r3, [sp, #4]
 679 039e 2046     		mov	r0, r4
 680 03a0 DC21     		movs	r1, #220
 681 03a2 40F21712 		movw	r2, #279
 682 03a6 F023     		movs	r3, #240
 683 03a8 FFF7FEFF 		bl	drawRect
 684              	.LVL135:
 120:.\lantern.c   ****             DMA_Wait_For_Completion(disp);
 685              		.loc 1 120 0 discriminator 3
 686 03ac 0134     		adds	r4, r4, #1
 687              	.LVL136:
 688 03ae E4B2     		uxtb	r4, r4
ARM GAS  C:\Users\ericz\AppData\Local\Temp\ccRQlSId.s 			page 16


 689              	.LVL137:
 690              	.L47:
 120:.\lantern.c   ****             DMA_Wait_For_Completion(disp);
 691              		.loc 1 120 0 is_stmt 0 discriminator 1
 692 03b0 032C     		cmp	r4, #3
 693 03b2 EBD9     		bls	.L48
 694 03b4 0024     		movs	r4, #0
 695              	.LVL138:
 696 03b6 10E0     		b	.L49
 697              	.LVL139:
 698              	.L50:
 123:.\lantern.c   ****         }
 124:.\lantern.c   ****         for (disp = 0; disp < NUM_SCREENS; disp ++ ) {
 125:.\lantern.c   ****             DMA_Wait_For_Completion(disp);
 699              		.loc 1 125 0 is_stmt 1 discriminator 3
 700 03b8 2046     		mov	r0, r4
 701 03ba FFF7FEFF 		bl	DMA_Wait_For_Completion
 702              	.LVL140:
 126:.\lantern.c   ****             drawRect(disp, 100, 219, 240, 359, 0xFFFA);
 703              		.loc 1 126 0 discriminator 3
 704 03be 40F26713 		movw	r3, #359
 705 03c2 0093     		str	r3, [sp]
 706 03c4 4FF6FA73 		movw	r3, #65530
 707 03c8 0193     		str	r3, [sp, #4]
 708 03ca 2046     		mov	r0, r4
 709 03cc 6421     		movs	r1, #100
 710 03ce DB22     		movs	r2, #219
 711 03d0 F023     		movs	r3, #240
 712 03d2 FFF7FEFF 		bl	drawRect
 713              	.LVL141:
 124:.\lantern.c   ****             DMA_Wait_For_Completion(disp);
 714              		.loc 1 124 0 discriminator 3
 715 03d6 0134     		adds	r4, r4, #1
 716              	.LVL142:
 717 03d8 E4B2     		uxtb	r4, r4
 718              	.LVL143:
 719              	.L49:
 124:.\lantern.c   ****             DMA_Wait_For_Completion(disp);
 720              		.loc 1 124 0 is_stmt 0 discriminator 1
 721 03da 032C     		cmp	r4, #3
 722 03dc ECD9     		bls	.L50
 723 03de 0024     		movs	r4, #0
 724              	.LVL144:
 725 03e0 11E0     		b	.L51
 726              	.LVL145:
 727              	.L52:
 127:.\lantern.c   ****         }
 128:.\lantern.c   ****         for (disp = 0; disp < NUM_SCREENS; disp ++ ) {
 129:.\lantern.c   ****             DMA_Wait_For_Completion(disp);
 728              		.loc 1 129 0 is_stmt 1 discriminator 3
 729 03e2 2046     		mov	r0, r4
 730 03e4 FFF7FEFF 		bl	DMA_Wait_For_Completion
 731              	.LVL146:
 130:.\lantern.c   ****             drawRect(disp, 160, 219, 300, 359, 0xFFF1);
 732              		.loc 1 130 0 discriminator 3
 733 03e8 40F26713 		movw	r3, #359
 734 03ec 0093     		str	r3, [sp]
ARM GAS  C:\Users\ericz\AppData\Local\Temp\ccRQlSId.s 			page 17


 735 03ee 4FF6F173 		movw	r3, #65521
 736 03f2 0193     		str	r3, [sp, #4]
 737 03f4 2046     		mov	r0, r4
 738 03f6 A021     		movs	r1, #160
 739 03f8 DB22     		movs	r2, #219
 740 03fa 4FF49673 		mov	r3, #300
 741 03fe FFF7FEFF 		bl	drawRect
 742              	.LVL147:
 128:.\lantern.c   ****             DMA_Wait_For_Completion(disp);
 743              		.loc 1 128 0 discriminator 3
 744 0402 0134     		adds	r4, r4, #1
 745              	.LVL148:
 746 0404 E4B2     		uxtb	r4, r4
 747              	.LVL149:
 748              	.L51:
 128:.\lantern.c   ****             DMA_Wait_For_Completion(disp);
 749              		.loc 1 128 0 is_stmt 0 discriminator 1
 750 0406 032C     		cmp	r4, #3
 751 0408 EBD9     		bls	.L52
 752 040a 0024     		movs	r4, #0
 753              	.LVL150:
 754 040c 10E0     		b	.L53
 755              	.LVL151:
 756              	.L54:
 131:.\lantern.c   ****         }
 132:.\lantern.c   ****         for (disp = 0; disp < NUM_SCREENS; disp ++ ) {
 133:.\lantern.c   ****             DMA_Wait_For_Completion(disp);
 757              		.loc 1 133 0 is_stmt 1 discriminator 3
 758 040e 2046     		mov	r0, r4
 759 0410 FFF7FEFF 		bl	DMA_Wait_For_Completion
 760              	.LVL152:
 134:.\lantern.c   ****             drawRect(disp, 100, 159, 240, 299, 0xFFF1);
 761              		.loc 1 134 0 discriminator 3
 762 0414 40F22B13 		movw	r3, #299
 763 0418 0093     		str	r3, [sp]
 764 041a 4FF6F173 		movw	r3, #65521
 765 041e 0193     		str	r3, [sp, #4]
 766 0420 2046     		mov	r0, r4
 767 0422 6421     		movs	r1, #100
 768 0424 9F22     		movs	r2, #159
 769 0426 F023     		movs	r3, #240
 770 0428 FFF7FEFF 		bl	drawRect
 771              	.LVL153:
 132:.\lantern.c   ****             DMA_Wait_For_Completion(disp);
 772              		.loc 1 132 0 discriminator 3
 773 042c 0134     		adds	r4, r4, #1
 774              	.LVL154:
 775 042e E4B2     		uxtb	r4, r4
 776              	.LVL155:
 777              	.L53:
 132:.\lantern.c   ****             DMA_Wait_For_Completion(disp);
 778              		.loc 1 132 0 is_stmt 0 discriminator 1
 779 0430 032C     		cmp	r4, #3
 780 0432 ECD9     		bls	.L54
 781 0434 0024     		movs	r4, #0
 782              	.LVL156:
 783 0436 0FE0     		b	.L55
ARM GAS  C:\Users\ericz\AppData\Local\Temp\ccRQlSId.s 			page 18


 784              	.LVL157:
 785              	.L56:
 135:.\lantern.c   ****         }
 136:.\lantern.c   ****         for (disp = 0; disp < NUM_SCREENS; disp ++ ) {
 137:.\lantern.c   ****             DMA_Wait_For_Completion(disp);
 786              		.loc 1 137 0 is_stmt 1 discriminator 3
 787 0438 2046     		mov	r0, r4
 788 043a FFF7FEFF 		bl	DMA_Wait_For_Completion
 789              	.LVL158:
 138:.\lantern.c   ****             drawRect(disp, 0, 39, 60, 119, 0x422A);
 790              		.loc 1 138 0 discriminator 3
 791 043e 7723     		movs	r3, #119
 792 0440 0093     		str	r3, [sp]
 793 0442 44F22A23 		movw	r3, #16938
 794 0446 0193     		str	r3, [sp, #4]
 795 0448 2046     		mov	r0, r4
 796 044a 0021     		movs	r1, #0
 797 044c 2722     		movs	r2, #39
 798 044e 3C23     		movs	r3, #60
 799 0450 FFF7FEFF 		bl	drawRect
 800              	.LVL159:
 136:.\lantern.c   ****             DMA_Wait_For_Completion(disp);
 801              		.loc 1 136 0 discriminator 3
 802 0454 0134     		adds	r4, r4, #1
 803              	.LVL160:
 804 0456 E4B2     		uxtb	r4, r4
 805              	.LVL161:
 806              	.L55:
 136:.\lantern.c   ****             DMA_Wait_For_Completion(disp);
 807              		.loc 1 136 0 is_stmt 0 discriminator 1
 808 0458 032C     		cmp	r4, #3
 809 045a EDD9     		bls	.L56
 810 045c 0024     		movs	r4, #0
 811              	.LVL162:
 812 045e 11E0     		b	.L57
 813              	.LVL163:
 814              	.L58:
 139:.\lantern.c   ****         }
 140:.\lantern.c   ****         for (disp = 0; disp < NUM_SCREENS; disp ++ ) {
 141:.\lantern.c   ****             DMA_Wait_For_Completion(disp);
 815              		.loc 1 141 0 is_stmt 1 discriminator 3
 816 0460 2046     		mov	r0, r4
 817 0462 FFF7FEFF 		bl	DMA_Wait_For_Completion
 818              	.LVL164:
 142:.\lantern.c   ****             drawRect(disp, 280, 319, 60, 119, 0x422A);
 819              		.loc 1 142 0 discriminator 3
 820 0466 7723     		movs	r3, #119
 821 0468 0093     		str	r3, [sp]
 822 046a 44F22A23 		movw	r3, #16938
 823 046e 0193     		str	r3, [sp, #4]
 824 0470 2046     		mov	r0, r4
 825 0472 4FF48C71 		mov	r1, #280
 826 0476 40F23F12 		movw	r2, #319
 827 047a 3C23     		movs	r3, #60
 828 047c FFF7FEFF 		bl	drawRect
 829              	.LVL165:
 140:.\lantern.c   ****             DMA_Wait_For_Completion(disp);
ARM GAS  C:\Users\ericz\AppData\Local\Temp\ccRQlSId.s 			page 19


 830              		.loc 1 140 0 discriminator 3
 831 0480 0134     		adds	r4, r4, #1
 832              	.LVL166:
 833 0482 E4B2     		uxtb	r4, r4
 834              	.LVL167:
 835              	.L57:
 140:.\lantern.c   ****             DMA_Wait_For_Completion(disp);
 836              		.loc 1 140 0 is_stmt 0 discriminator 1
 837 0484 032C     		cmp	r4, #3
 838 0486 EBD9     		bls	.L58
 839              	.L1:
 143:.\lantern.c   ****         }
 144:.\lantern.c   ****     }
 145:.\lantern.c   **** }
 840              		.loc 1 145 0 is_stmt 1
 841 0488 02B0     		add	sp, sp, #8
 842              		.cfi_def_cfa_offset 8
 843              		@ sp needed
 844 048a 10BD     		pop	{r4, pc}
 845              		.cfi_endproc
 846              	.LFE63:
 847              		.size	lightLantern, .-lightLantern
 848              		.global	sineBrightness
 849              		.section	.rodata
 850              		.align	2
 851              		.type	sineBrightness, %object
 852              		.size	sineBrightness, 256
 853              	sineBrightness:
 854 0000 80       		.byte	-128
 855 0001 83       		.byte	-125
 856 0002 86       		.byte	-122
 857 0003 89       		.byte	-119
 858 0004 8C       		.byte	-116
 859 0005 8F       		.byte	-113
 860 0006 92       		.byte	-110
 861 0007 95       		.byte	-107
 862 0008 98       		.byte	-104
 863 0009 9B       		.byte	-101
 864 000a 9E       		.byte	-98
 865 000b A2       		.byte	-94
 866 000c A5       		.byte	-91
 867 000d A7       		.byte	-89
 868 000e AA       		.byte	-86
 869 000f AD       		.byte	-83
 870 0010 B0       		.byte	-80
 871 0011 B3       		.byte	-77
 872 0012 B6       		.byte	-74
 873 0013 B9       		.byte	-71
 874 0014 BC       		.byte	-68
 875 0015 BE       		.byte	-66
 876 0016 C1       		.byte	-63
 877 0017 C4       		.byte	-60
 878 0018 C6       		.byte	-58
 879 0019 C9       		.byte	-55
 880 001a CB       		.byte	-53
 881 001b CE       		.byte	-50
 882 001c D0       		.byte	-48
ARM GAS  C:\Users\ericz\AppData\Local\Temp\ccRQlSId.s 			page 20


 883 001d D3       		.byte	-45
 884 001e D5       		.byte	-43
 885 001f D7       		.byte	-41
 886 0020 DA       		.byte	-38
 887 0021 DC       		.byte	-36
 888 0022 DE       		.byte	-34
 889 0023 E0       		.byte	-32
 890 0024 E2       		.byte	-30
 891 0025 E4       		.byte	-28
 892 0026 E6       		.byte	-26
 893 0027 E8       		.byte	-24
 894 0028 EA       		.byte	-22
 895 0029 EB       		.byte	-21
 896 002a ED       		.byte	-19
 897 002b EE       		.byte	-18
 898 002c F0       		.byte	-16
 899 002d F1       		.byte	-15
 900 002e F3       		.byte	-13
 901 002f F4       		.byte	-12
 902 0030 F5       		.byte	-11
 903 0031 F6       		.byte	-10
 904 0032 F8       		.byte	-8
 905 0033 F9       		.byte	-7
 906 0034 FA       		.byte	-6
 907 0035 FA       		.byte	-6
 908 0036 FB       		.byte	-5
 909 0037 FC       		.byte	-4
 910 0038 FD       		.byte	-3
 911 0039 FD       		.byte	-3
 912 003a FE       		.byte	-2
 913 003b FE       		.byte	-2
 914 003c FE       		.byte	-2
 915 003d FF       		.byte	-1
 916 003e FF       		.byte	-1
 917 003f FF       		.byte	-1
 918 0040 FF       		.byte	-1
 919 0041 FF       		.byte	-1
 920 0042 FF       		.byte	-1
 921 0043 FF       		.byte	-1
 922 0044 FE       		.byte	-2
 923 0045 FE       		.byte	-2
 924 0046 FE       		.byte	-2
 925 0047 FD       		.byte	-3
 926 0048 FD       		.byte	-3
 927 0049 FC       		.byte	-4
 928 004a FB       		.byte	-5
 929 004b FA       		.byte	-6
 930 004c FA       		.byte	-6
 931 004d F9       		.byte	-7
 932 004e F8       		.byte	-8
 933 004f F6       		.byte	-10
 934 0050 F5       		.byte	-11
 935 0051 F4       		.byte	-12
 936 0052 F3       		.byte	-13
 937 0053 F1       		.byte	-15
 938 0054 F0       		.byte	-16
 939 0055 EE       		.byte	-18
ARM GAS  C:\Users\ericz\AppData\Local\Temp\ccRQlSId.s 			page 21


 940 0056 ED       		.byte	-19
 941 0057 EB       		.byte	-21
 942 0058 EA       		.byte	-22
 943 0059 E8       		.byte	-24
 944 005a E6       		.byte	-26
 945 005b E4       		.byte	-28
 946 005c E2       		.byte	-30
 947 005d E0       		.byte	-32
 948 005e DE       		.byte	-34
 949 005f DC       		.byte	-36
 950 0060 DA       		.byte	-38
 951 0061 D7       		.byte	-41
 952 0062 D5       		.byte	-43
 953 0063 D3       		.byte	-45
 954 0064 D0       		.byte	-48
 955 0065 CE       		.byte	-50
 956 0066 CB       		.byte	-53
 957 0067 C9       		.byte	-55
 958 0068 C6       		.byte	-58
 959 0069 C4       		.byte	-60
 960 006a C1       		.byte	-63
 961 006b BE       		.byte	-66
 962 006c BC       		.byte	-68
 963 006d B9       		.byte	-71
 964 006e B6       		.byte	-74
 965 006f B3       		.byte	-77
 966 0070 B0       		.byte	-80
 967 0071 AD       		.byte	-83
 968 0072 AA       		.byte	-86
 969 0073 A7       		.byte	-89
 970 0074 A5       		.byte	-91
 971 0075 A2       		.byte	-94
 972 0076 9E       		.byte	-98
 973 0077 9B       		.byte	-101
 974 0078 98       		.byte	-104
 975 0079 95       		.byte	-107
 976 007a 92       		.byte	-110
 977 007b 8F       		.byte	-113
 978 007c 8C       		.byte	-116
 979 007d 89       		.byte	-119
 980 007e 86       		.byte	-122
 981 007f 83       		.byte	-125
 982 0080 80       		.byte	-128
 983 0081 7C       		.byte	124
 984 0082 79       		.byte	121
 985 0083 76       		.byte	118
 986 0084 73       		.byte	115
 987 0085 70       		.byte	112
 988 0086 6D       		.byte	109
 989 0087 6A       		.byte	106
 990 0088 67       		.byte	103
 991 0089 64       		.byte	100
 992 008a 61       		.byte	97
 993 008b 5D       		.byte	93
 994 008c 5A       		.byte	90
 995 008d 58       		.byte	88
 996 008e 55       		.byte	85
ARM GAS  C:\Users\ericz\AppData\Local\Temp\ccRQlSId.s 			page 22


 997 008f 52       		.byte	82
 998 0090 4F       		.byte	79
 999 0091 4C       		.byte	76
 1000 0092 49       		.byte	73
 1001 0093 46       		.byte	70
 1002 0094 43       		.byte	67
 1003 0095 41       		.byte	65
 1004 0096 3E       		.byte	62
 1005 0097 3B       		.byte	59
 1006 0098 39       		.byte	57
 1007 0099 36       		.byte	54
 1008 009a 34       		.byte	52
 1009 009b 31       		.byte	49
 1010 009c 2F       		.byte	47
 1011 009d 2C       		.byte	44
 1012 009e 2A       		.byte	42
 1013 009f 28       		.byte	40
 1014 00a0 25       		.byte	37
 1015 00a1 23       		.byte	35
 1016 00a2 21       		.byte	33
 1017 00a3 1F       		.byte	31
 1018 00a4 1D       		.byte	29
 1019 00a5 1B       		.byte	27
 1020 00a6 19       		.byte	25
 1021 00a7 17       		.byte	23
 1022 00a8 15       		.byte	21
 1023 00a9 14       		.byte	20
 1024 00aa 12       		.byte	18
 1025 00ab 11       		.byte	17
 1026 00ac 0F       		.byte	15
 1027 00ad 0E       		.byte	14
 1028 00ae 0C       		.byte	12
 1029 00af 0B       		.byte	11
 1030 00b0 0A       		.byte	10
 1031 00b1 09       		.byte	9
 1032 00b2 07       		.byte	7
 1033 00b3 06       		.byte	6
 1034 00b4 05       		.byte	5
 1035 00b5 05       		.byte	5
 1036 00b6 04       		.byte	4
 1037 00b7 03       		.byte	3
 1038 00b8 02       		.byte	2
 1039 00b9 02       		.byte	2
 1040 00ba 01       		.byte	1
 1041 00bb 01       		.byte	1
 1042 00bc 01       		.byte	1
 1043 00bd 00       		.byte	0
 1044 00be 00       		.byte	0
 1045 00bf 00       		.byte	0
 1046 00c0 00       		.byte	0
 1047 00c1 00       		.byte	0
 1048 00c2 00       		.byte	0
 1049 00c3 00       		.byte	0
 1050 00c4 01       		.byte	1
 1051 00c5 01       		.byte	1
 1052 00c6 01       		.byte	1
 1053 00c7 02       		.byte	2
ARM GAS  C:\Users\ericz\AppData\Local\Temp\ccRQlSId.s 			page 23


 1054 00c8 02       		.byte	2
 1055 00c9 03       		.byte	3
 1056 00ca 04       		.byte	4
 1057 00cb 05       		.byte	5
 1058 00cc 05       		.byte	5
 1059 00cd 06       		.byte	6
 1060 00ce 07       		.byte	7
 1061 00cf 09       		.byte	9
 1062 00d0 0A       		.byte	10
 1063 00d1 0B       		.byte	11
 1064 00d2 0C       		.byte	12
 1065 00d3 0E       		.byte	14
 1066 00d4 0F       		.byte	15
 1067 00d5 11       		.byte	17
 1068 00d6 12       		.byte	18
 1069 00d7 14       		.byte	20
 1070 00d8 15       		.byte	21
 1071 00d9 17       		.byte	23
 1072 00da 19       		.byte	25
 1073 00db 1B       		.byte	27
 1074 00dc 1D       		.byte	29
 1075 00dd 1F       		.byte	31
 1076 00de 21       		.byte	33
 1077 00df 23       		.byte	35
 1078 00e0 25       		.byte	37
 1079 00e1 28       		.byte	40
 1080 00e2 2A       		.byte	42
 1081 00e3 2C       		.byte	44
 1082 00e4 2F       		.byte	47
 1083 00e5 31       		.byte	49
 1084 00e6 34       		.byte	52
 1085 00e7 36       		.byte	54
 1086 00e8 39       		.byte	57
 1087 00e9 3B       		.byte	59
 1088 00ea 3E       		.byte	62
 1089 00eb 41       		.byte	65
 1090 00ec 43       		.byte	67
 1091 00ed 46       		.byte	70
 1092 00ee 49       		.byte	73
 1093 00ef 4C       		.byte	76
 1094 00f0 4F       		.byte	79
 1095 00f1 52       		.byte	82
 1096 00f2 55       		.byte	85
 1097 00f3 58       		.byte	88
 1098 00f4 5A       		.byte	90
 1099 00f5 5D       		.byte	93
 1100 00f6 61       		.byte	97
 1101 00f7 64       		.byte	100
 1102 00f8 67       		.byte	103
 1103 00f9 6A       		.byte	106
 1104 00fa 6D       		.byte	109
 1105 00fb 70       		.byte	112
 1106 00fc 73       		.byte	115
 1107 00fd 76       		.byte	118
 1108 00fe 79       		.byte	121
 1109 00ff 7C       		.byte	124
 1110              		.text
ARM GAS  C:\Users\ericz\AppData\Local\Temp\ccRQlSId.s 			page 24


 1111              	.Letext0:
 1112              		.file 2 "c:\\program files (x86)\\cypress\\psoc creator\\3.3\\psoc creator\\import\\gnu\\arm\\4.9.
 1113              		.file 3 "c:\\program files (x86)\\cypress\\psoc creator\\3.3\\psoc creator\\import\\gnu\\arm\\4.9.
 1114              		.file 4 "Generated_Source\\PSoC5/cytypes.h"
 1115              		.file 5 "Generated_Source\\PSoC5/core_cm3.h"
 1116              		.file 6 ".\\dma_util.h"
 1117              		.file 7 ".\\tft.h"