ARM GAS  C:\Users\ericz\AppData\Local\Temp\cchvyIUM.s 			page 1


   1              		.syntax unified
   2              		.cpu cortex-m3
   3              		.fpu softvfp
   4              		.eabi_attribute 20, 1
   5              		.eabi_attribute 21, 1
   6              		.eabi_attribute 23, 3
   7              		.eabi_attribute 24, 1
   8              		.eabi_attribute 25, 1
   9              		.eabi_attribute 26, 1
  10              		.eabi_attribute 30, 1
  11              		.eabi_attribute 34, 1
  12              		.eabi_attribute 18, 4
  13              		.thumb
  14              		.file	"main.c"
  15              		.text
  16              	.Ltext0:
  17              		.cfi_sections	.debug_frame
  18              		.section	.text.Mode_Handler,"ax",%progbits
  19              		.align	2
  20              		.global	Mode_Handler
  21              		.thumb
  22              		.thumb_func
  23              		.type	Mode_Handler, %function
  24              	Mode_Handler:
  25              	.LFB63:
  26              		.file 1 ".\\main.c"
   1:.\main.c      **** 
   2:.\main.c      **** #include <project.h>
   3:.\main.c      **** #include <stdlib.h>
   4:.\main.c      **** #include "tft.h"
   5:.\main.c      **** #include "dma_util.h"
   6:.\main.c      **** #include "imu.h"
   7:.\main.c      **** #include "rotate_liquid.h"
   8:.\main.c      **** #include "snowglobe.h"
   9:.\main.c      **** #include "lantern.h"
  10:.\main.c      **** 
  11:.\main.c      **** // handle which display mode to use
  12:.\main.c      **** volatile uint8_t mode = 0;
  13:.\main.c      **** volatile uint8_t mode_changed = 0; // flag
  14:.\main.c      **** CY_ISR(Mode_Handler) {
  27              		.loc 1 14 0
  28              		.cfi_startproc
  29              		@ args = 0, pretend = 0, frame = 0
  30              		@ frame_needed = 0, uses_anonymous_args = 0
  31              		@ link register save eliminated.
  15:.\main.c      ****     mode = (mode + 1) % 3;
  32              		.loc 1 15 0
  33 0000 0749     		ldr	r1, .L2
  34 0002 0A78     		ldrb	r2, [r1]	@ zero_extendqisi2
  35 0004 0132     		adds	r2, r2, #1
  36 0006 074B     		ldr	r3, .L2+4
  37 0008 83FB0203 		smull	r0, r3, r3, r2
  38 000c A3EBE273 		sub	r3, r3, r2, asr #31
  39 0010 03EB4303 		add	r3, r3, r3, lsl #1
  40 0014 D31A     		subs	r3, r2, r3
  41 0016 DBB2     		uxtb	r3, r3
  42 0018 0B70     		strb	r3, [r1]
ARM GAS  C:\Users\ericz\AppData\Local\Temp\cchvyIUM.s 			page 2


  16:.\main.c      ****     mode_changed = 1;
  43              		.loc 1 16 0
  44 001a 0123     		movs	r3, #1
  45 001c 4B70     		strb	r3, [r1, #1]
  46 001e 7047     		bx	lr
  47              	.L3:
  48              		.align	2
  49              	.L2:
  50 0020 00000000 		.word	.LANCHOR0
  51 0024 56555555 		.word	1431655766
  52              		.cfi_endproc
  53              	.LFE63:
  54              		.size	Mode_Handler, .-Mode_Handler
  55              		.section	.text.LanternToggle_Handler,"ax",%progbits
  56              		.align	2
  57              		.global	LanternToggle_Handler
  58              		.thumb
  59              		.thumb_func
  60              		.type	LanternToggle_Handler, %function
  61              	LanternToggle_Handler:
  62              	.LFB64:
  17:.\main.c      **** }
  18:.\main.c      **** 
  19:.\main.c      **** // changing between orange and blue lantern
  20:.\main.c      **** volatile uint8_t lanternMode = 0;
  21:.\main.c      **** volatile uint8_t lanternModeChanged = 0;
  22:.\main.c      **** CY_ISR(LanternToggle_Handler) {
  63              		.loc 1 22 0
  64              		.cfi_startproc
  65              		@ args = 0, pretend = 0, frame = 0
  66              		@ frame_needed = 0, uses_anonymous_args = 0
  67              		@ link register save eliminated.
  23:.\main.c      ****     lanternMode = (lanternMode == 0) ? 1 : 0;
  68              		.loc 1 23 0
  69 0000 054B     		ldr	r3, .L5
  70 0002 9A78     		ldrb	r2, [r3, #2]	@ zero_extendqisi2
  71 0004 12F0FF0F 		tst	r2, #255
  72 0008 0CBF     		ite	eq
  73 000a 0122     		moveq	r2, #1
  74 000c 0022     		movne	r2, #0
  75 000e 9A70     		strb	r2, [r3, #2]
  24:.\main.c      ****     lanternModeChanged = 1;
  76              		.loc 1 24 0
  77 0010 0122     		movs	r2, #1
  78 0012 DA70     		strb	r2, [r3, #3]
  79 0014 7047     		bx	lr
  80              	.L6:
  81 0016 00BF     		.align	2
  82              	.L5:
  83 0018 00000000 		.word	.LANCHOR0
  84              		.cfi_endproc
  85              	.LFE64:
  86              		.size	LanternToggle_Handler, .-LanternToggle_Handler
  87              		.section	.text.Bright_Handler,"ax",%progbits
  88              		.align	2
  89              		.global	Bright_Handler
  90              		.thumb
ARM GAS  C:\Users\ericz\AppData\Local\Temp\cchvyIUM.s 			page 3


  91              		.thumb_func
  92              		.type	Bright_Handler, %function
  93              	Bright_Handler:
  94              	.LFB65:
  25:.\main.c      **** }
  26:.\main.c      **** 
  27:.\main.c      **** // automatic brightness adjustment for lantern
  28:.\main.c      **** volatile uint8_t brightIdx = 0;
  29:.\main.c      **** volatile uint8_t brightness = 255;
  30:.\main.c      **** volatile uint8_t brightnessChanged = 0;
  31:.\main.c      **** CY_ISR(Bright_Handler) {
  95              		.loc 1 31 0
  96              		.cfi_startproc
  97              		@ args = 0, pretend = 0, frame = 0
  98              		@ frame_needed = 0, uses_anonymous_args = 0
  99              		@ link register save eliminated.
  32:.\main.c      ****     
  33:.\main.c      ****     if (mode != 2 && brightness != 255) {
 100              		.loc 1 33 0
 101 0000 114B     		ldr	r3, .L10
 102 0002 1B78     		ldrb	r3, [r3]	@ zero_extendqisi2
 103 0004 DBB2     		uxtb	r3, r3
 104 0006 022B     		cmp	r3, #2
 105 0008 0AD0     		beq	.L8
 106              		.loc 1 33 0 is_stmt 0 discriminator 1
 107 000a 104B     		ldr	r3, .L10+4
 108 000c 1B78     		ldrb	r3, [r3]	@ zero_extendqisi2
 109 000e DBB2     		uxtb	r3, r3
 110 0010 FF2B     		cmp	r3, #255
 111 0012 05D0     		beq	.L8
  34:.\main.c      ****         brightnessChanged = 1;
 112              		.loc 1 34 0 is_stmt 1
 113 0014 0122     		movs	r2, #1
 114 0016 0C4B     		ldr	r3, .L10
 115 0018 1A71     		strb	r2, [r3, #4]
  35:.\main.c      ****         brightness = 255;
 116              		.loc 1 35 0
 117 001a FF22     		movs	r2, #255
 118 001c 0B4B     		ldr	r3, .L10+4
 119 001e 1A70     		strb	r2, [r3]
 120              	.L8:
  36:.\main.c      ****     }
  37:.\main.c      ****     
  38:.\main.c      ****     if (mode == 2) {
 121              		.loc 1 38 0
 122 0020 094B     		ldr	r3, .L10
 123 0022 1B78     		ldrb	r3, [r3]	@ zero_extendqisi2
 124 0024 DBB2     		uxtb	r3, r3
 125 0026 022B     		cmp	r3, #2
 126 0028 0CD1     		bne	.L7
  39:.\main.c      ****         brightnessChanged = 1;
 127              		.loc 1 39 0
 128 002a 074A     		ldr	r2, .L10
 129 002c 0123     		movs	r3, #1
 130 002e 1371     		strb	r3, [r2, #4]
  40:.\main.c      ****         brightIdx += 1;
 131              		.loc 1 40 0
ARM GAS  C:\Users\ericz\AppData\Local\Temp\cchvyIUM.s 			page 4


 132 0030 5379     		ldrb	r3, [r2, #5]	@ zero_extendqisi2
 133 0032 0133     		adds	r3, r3, #1
 134 0034 DBB2     		uxtb	r3, r3
 135 0036 5371     		strb	r3, [r2, #5]
  41:.\main.c      ****         brightness = sineBrightness[brightIdx];
 136              		.loc 1 41 0
 137 0038 5379     		ldrb	r3, [r2, #5]	@ zero_extendqisi2
 138 003a DBB2     		uxtb	r3, r3
 139 003c 044A     		ldr	r2, .L10+8
 140 003e D25C     		ldrb	r2, [r2, r3]	@ zero_extendqisi2
 141 0040 024B     		ldr	r3, .L10+4
 142 0042 1A70     		strb	r2, [r3]
 143              	.L7:
 144 0044 7047     		bx	lr
 145              	.L11:
 146 0046 00BF     		.align	2
 147              	.L10:
 148 0048 00000000 		.word	.LANCHOR0
 149 004c 00000000 		.word	.LANCHOR1
 150 0050 00000000 		.word	sineBrightness
 151              		.cfi_endproc
 152              	.LFE65:
 153              		.size	Bright_Handler, .-Bright_Handler
 154              		.section	.text.main,"ax",%progbits
 155              		.align	2
 156              		.global	main
 157              		.thumb
 158              		.thumb_func
 159              		.type	main, %function
 160              	main:
 161              	.LFB66:
  42:.\main.c      ****     }
  43:.\main.c      **** }
  44:.\main.c      **** 
  45:.\main.c      **** 
  46:.\main.c      **** int main() {
 162              		.loc 1 46 0
 163              		.cfi_startproc
 164              		@ args = 0, pretend = 0, frame = 24
 165              		@ frame_needed = 0, uses_anonymous_args = 0
 166 0000 10B5     		push	{r4, lr}
 167              		.cfi_def_cfa_offset 8
 168              		.cfi_offset 4, -8
 169              		.cfi_offset 14, -4
 170 0002 86B0     		sub	sp, sp, #24
 171              		.cfi_def_cfa_offset 32
  47:.\main.c      ****     
  48:.\main.c      ****     // enable global interrupts
  49:.\main.c      ****     CyGlobalIntEnable;
 172              		.loc 1 49 0
 173              	@ 49 ".\main.c" 1
 174 0004 62B6     		CPSIE   i
 175              	@ 0 "" 2
  50:.\main.c      ****     
  51:.\main.c      ****     // start SPI
  52:.\main.c      ****     SPIM_0_Start();
 176              		.loc 1 52 0
ARM GAS  C:\Users\ericz\AppData\Local\Temp\cchvyIUM.s 			page 5


 177              		.thumb
 178 0006 FFF7FEFF 		bl	SPIM_0_Start
 179              	.LVL0:
  53:.\main.c      ****     SPIM_1_Start();
 180              		.loc 1 53 0
 181 000a FFF7FEFF 		bl	SPIM_1_Start
 182              	.LVL1:
  54:.\main.c      ****     SPIM_2_Start();
 183              		.loc 1 54 0
 184 000e FFF7FEFF 		bl	SPIM_2_Start
 185              	.LVL2:
  55:.\main.c      ****     SPIM_3_Start();
 186              		.loc 1 55 0
 187 0012 FFF7FEFF 		bl	SPIM_3_Start
 188              	.LVL3:
  56:.\main.c      ****     
  57:.\main.c      ****     // start DMAs
  58:.\main.c      ****     Init_DMA_SPI(0);
 189              		.loc 1 58 0
 190 0016 0020     		movs	r0, #0
 191 0018 FFF7FEFF 		bl	Init_DMA_SPI
 192              	.LVL4:
  59:.\main.c      ****     Init_DMA_SPI(1);
 193              		.loc 1 59 0
 194 001c 0120     		movs	r0, #1
 195 001e FFF7FEFF 		bl	Init_DMA_SPI
 196              	.LVL5:
  60:.\main.c      ****     Init_DMA_SPI(2);
 197              		.loc 1 60 0
 198 0022 0220     		movs	r0, #2
 199 0024 FFF7FEFF 		bl	Init_DMA_SPI
 200              	.LVL6:
  61:.\main.c      ****     Init_DMA_SPI(3);
 201              		.loc 1 61 0
 202 0028 0320     		movs	r0, #3
 203 002a FFF7FEFF 		bl	Init_DMA_SPI
 204              	.LVL7:
  62:.\main.c      ****     
  63:.\main.c      ****     // initialize TFT screens
  64:.\main.c      ****     tftStart(0);
 205              		.loc 1 64 0
 206 002e 0020     		movs	r0, #0
 207 0030 FFF7FEFF 		bl	tftStart
 208              	.LVL8:
  65:.\main.c      ****     tftStart(1);
 209              		.loc 1 65 0
 210 0034 0120     		movs	r0, #1
 211 0036 FFF7FEFF 		bl	tftStart
 212              	.LVL9:
  66:.\main.c      ****     tftStart(2);
 213              		.loc 1 66 0
 214 003a 0220     		movs	r0, #2
 215 003c FFF7FEFF 		bl	tftStart
 216              	.LVL10:
  67:.\main.c      ****     tftStart(3);
 217              		.loc 1 67 0
 218 0040 0320     		movs	r0, #3
ARM GAS  C:\Users\ericz\AppData\Local\Temp\cchvyIUM.s 			page 6


 219 0042 FFF7FEFF 		bl	tftStart
 220              	.LVL11:
  68:.\main.c      ****     
  69:.\main.c      ****     // start IMU
  70:.\main.c      ****     I2C_1_Start();
 221              		.loc 1 70 0
 222 0046 FFF7FEFF 		bl	I2C_1_Start
 223              	.LVL12:
  71:.\main.c      ****     MPU6050_Start();
 224              		.loc 1 71 0
 225 004a FFF7FEFF 		bl	MPU6050_Start
 226              	.LVL13:
  72:.\main.c      ****     
  73:.\main.c      ****     int16_t ax, ay, az; // accelerometer values
  74:.\main.c      ****     int16_t gx, gy, gz; // gyroscope values
  75:.\main.c      ****     
  76:.\main.c      ****     // ensure DMAs are done
  77:.\main.c      ****     DMA_Wait_For_Completion(0);
 227              		.loc 1 77 0
 228 004e 0020     		movs	r0, #0
 229 0050 FFF7FEFF 		bl	DMA_Wait_For_Completion
 230              	.LVL14:
  78:.\main.c      ****     DMA_Wait_For_Completion(1);
 231              		.loc 1 78 0
 232 0054 0120     		movs	r0, #1
 233 0056 FFF7FEFF 		bl	DMA_Wait_For_Completion
 234              	.LVL15:
  79:.\main.c      ****     DMA_Wait_For_Completion(2);
 235              		.loc 1 79 0
 236 005a 0220     		movs	r0, #2
 237 005c FFF7FEFF 		bl	DMA_Wait_For_Completion
 238              	.LVL16:
  80:.\main.c      ****     DMA_Wait_For_Completion(3);
 239              		.loc 1 80 0
 240 0060 0320     		movs	r0, #3
 241 0062 FFF7FEFF 		bl	DMA_Wait_For_Completion
 242              	.LVL17:
  81:.\main.c      ****     
  82:.\main.c      ****     // mode switching ISR
  83:.\main.c      ****     MODE_ISR_StartEx(Mode_Handler);
 243              		.loc 1 83 0
 244 0066 6C48     		ldr	r0, .L31
 245 0068 FFF7FEFF 		bl	MODE_ISR_StartEx
 246              	.LVL18:
  84:.\main.c      ****         
  85:.\main.c      ****     // variables for mode 0 (fluid display)
  86:.\main.c      ****     uint8_t fracFull[] = {128, 128, 128, 128};
 247              		.loc 1 86 0
 248 006c 6B4B     		ldr	r3, .L31+4
 249 006e 1868     		ldr	r0, [r3]	@ unaligned
 250 0070 0390     		str	r0, [sp, #12]	@ unaligned
  87:.\main.c      ****     uint16_t angles[NUM_SCREENS] = {0};
 251              		.loc 1 87 0
 252 0072 0023     		movs	r3, #0
 253 0074 0193     		str	r3, [sp, #4]
 254 0076 0293     		str	r3, [sp, #8]
  88:.\main.c      ****     
ARM GAS  C:\Users\ericz\AppData\Local\Temp\cchvyIUM.s 			page 7


  89:.\main.c      ****     // brightness ISR for mode 2 (lantern)
  90:.\main.c      ****     BRIGHT_ISR_StartEx(Bright_Handler);
 255              		.loc 1 90 0
 256 0078 6948     		ldr	r0, .L31+8
 257 007a FFF7FEFF 		bl	BRIGHT_ISR_StartEx
 258              	.LVL19:
  91:.\main.c      ****     
  92:.\main.c      ****     // lantern mode ISR
  93:.\main.c      ****     LANTERN_TOGGLE_ISR_StartEx(LanternToggle_Handler);
 259              		.loc 1 93 0
 260 007e 6948     		ldr	r0, .L31+12
 261 0080 FFF7FEFF 		bl	LANTERN_TOGGLE_ISR_StartEx
 262              	.LVL20:
  94:.\main.c      ****     
  95:.\main.c      ****     PWM_1_Start();
 263              		.loc 1 95 0
 264 0084 FFF7FEFF 		bl	PWM_1_Start
 265              	.LVL21:
 266              	.L13:
  96:.\main.c      ****     
  97:.\main.c      ****     // main loop
  98:.\main.c      ****     for (;;) {
  99:.\main.c      ****         
 100:.\main.c      ****         // =============================================
 101:.\main.c      ****         // Change mode if button was pressed
 102:.\main.c      ****         // =============================================
 103:.\main.c      ****         if (mode_changed) {
 267              		.loc 1 103 0
 268 0088 674B     		ldr	r3, .L31+16
 269 008a 5B78     		ldrb	r3, [r3, #1]	@ zero_extendqisi2
 270 008c 13F0FF0F 		tst	r3, #255
 271 0090 1BD0     		beq	.L14
 104:.\main.c      ****             mode_changed = 0;
 272              		.loc 1 104 0
 273 0092 654C     		ldr	r4, .L31+16
 274 0094 0023     		movs	r3, #0
 275 0096 6370     		strb	r3, [r4, #1]
 105:.\main.c      ****             LED_MODE_1_Write(mode & 0x01);                  // change the mode indicator LEDs
 276              		.loc 1 105 0
 277 0098 2078     		ldrb	r0, [r4]	@ zero_extendqisi2
 278 009a 00F00100 		and	r0, r0, #1
 279 009e FFF7FEFF 		bl	LED_MODE_1_Write
 280              	.LVL22:
 106:.\main.c      ****             LED_MODE_2_Write((mode >> 1) & 0x01);
 281              		.loc 1 106 0
 282 00a2 2078     		ldrb	r0, [r4]	@ zero_extendqisi2
 283 00a4 C0F34000 		ubfx	r0, r0, #1, #1
 284 00a8 FFF7FEFF 		bl	LED_MODE_2_Write
 285              	.LVL23:
 107:.\main.c      ****             
 108:.\main.c      ****             if (mode == 1) snowglobeInit();
 286              		.loc 1 108 0
 287 00ac 2378     		ldrb	r3, [r4]	@ zero_extendqisi2
 288 00ae DBB2     		uxtb	r3, r3
 289 00b0 012B     		cmp	r3, #1
 290 00b2 01D1     		bne	.L15
 291              		.loc 1 108 0 is_stmt 0 discriminator 1
ARM GAS  C:\Users\ericz\AppData\Local\Temp\cchvyIUM.s 			page 8


 292 00b4 FFF7FEFF 		bl	snowglobeInit
 293              	.LVL24:
 294              	.L15:
 109:.\main.c      ****             if (mode == 2) lightLantern(lanternMode);
 295              		.loc 1 109 0 is_stmt 1
 296 00b8 5B4B     		ldr	r3, .L31+16
 297 00ba 1B78     		ldrb	r3, [r3]	@ zero_extendqisi2
 298 00bc DBB2     		uxtb	r3, r3
 299 00be 022B     		cmp	r3, #2
 300 00c0 03D1     		bne	.L14
 301              		.loc 1 109 0 is_stmt 0 discriminator 1
 302 00c2 594B     		ldr	r3, .L31+16
 303 00c4 9878     		ldrb	r0, [r3, #2]	@ zero_extendqisi2
 304 00c6 FFF7FEFF 		bl	lightLantern
 305              	.LVL25:
 306              	.L14:
 110:.\main.c      ****         }
 111:.\main.c      ****         
 112:.\main.c      ****         if (brightnessChanged) {
 307              		.loc 1 112 0 is_stmt 1
 308 00ca 574B     		ldr	r3, .L31+16
 309 00cc 1B79     		ldrb	r3, [r3, #4]	@ zero_extendqisi2
 310 00ce 13F0FF0F 		tst	r3, #255
 311 00d2 06D0     		beq	.L16
 113:.\main.c      ****             brightnessChanged = 0;
 312              		.loc 1 113 0
 313 00d4 0022     		movs	r2, #0
 314 00d6 544B     		ldr	r3, .L31+16
 315 00d8 1A71     		strb	r2, [r3, #4]
 114:.\main.c      ****             PWM_1_WriteCompare(brightness);
 316              		.loc 1 114 0
 317 00da 544B     		ldr	r3, .L31+20
 318 00dc 1878     		ldrb	r0, [r3]	@ zero_extendqisi2
 319 00de FFF7FEFF 		bl	PWM_1_WriteCompare
 320              	.LVL26:
 321              	.L16:
 115:.\main.c      ****         }
 116:.\main.c      ****         
 117:.\main.c      ****         // =============================================
 118:.\main.c      ****         // Mode 0: tilt-sensitive fluid display
 119:.\main.c      ****         // =============================================
 120:.\main.c      ****         if (mode == 0) {
 322              		.loc 1 120 0
 323 00e2 514B     		ldr	r3, .L31+16
 324 00e4 1B78     		ldrb	r3, [r3]	@ zero_extendqisi2
 325 00e6 13F0FF0F 		tst	r3, #255
 326 00ea 6CD1     		bne	.L17
 121:.\main.c      ****             Read_Accel_Data(&ax, &ay, &az);
 327              		.loc 1 121 0
 328 00ec 0DF11600 		add	r0, sp, #22
 329 00f0 05A9     		add	r1, sp, #20
 330 00f2 0DF11202 		add	r2, sp, #18
 331 00f6 FFF7FEFF 		bl	Read_Accel_Data
 332              	.LVL27:
 122:.\main.c      ****             
 123:.\main.c      ****             if (abs(ax) >= abs(ay)) {                       // tilting along one axis
 333              		.loc 1 123 0
ARM GAS  C:\Users\ericz\AppData\Local\Temp\cchvyIUM.s 			page 9


 334 00fa BDF81600 		ldrh	r0, [sp, #22]
 335 00fe 01B2     		sxth	r1, r0
 336 0100 0029     		cmp	r1, #0
 337 0102 B8BF     		it	lt
 338 0104 4942     		rsblt	r1, r1, #0
 339 0106 BDF81430 		ldrh	r3, [sp, #20]
 340 010a 1AB2     		sxth	r2, r3
 341 010c 002A     		cmp	r2, #0
 342 010e B8BF     		it	lt
 343 0110 5242     		rsblt	r2, r2, #0
 344 0112 9142     		cmp	r1, r2
 345 0114 29DB     		blt	.L18
 124:.\main.c      ****                 fracFull[0] = 128;
 346              		.loc 1 124 0
 347 0116 8023     		movs	r3, #128
 348 0118 8DF80C30 		strb	r3, [sp, #12]
 125:.\main.c      ****                 fracFull[2] = 128;
 349              		.loc 1 125 0
 350 011c 8DF80E30 		strb	r3, [sp, #14]
 126:.\main.c      ****                 fracFull[1] = 128 - (uint8_t) (ax >> 8);
 351              		.loc 1 126 0
 352 0120 000A     		lsrs	r0, r0, #8
 353 0122 1B1A     		subs	r3, r3, r0
 354 0124 8DF80D30 		strb	r3, [sp, #13]
 127:.\main.c      ****                 fracFull[3] = 128 + (uint8_t) (ax >> 8);
 355              		.loc 1 127 0
 356 0128 80F08000 		eor	r0, r0, #128
 357 012c 8DF80F00 		strb	r0, [sp, #15]
 128:.\main.c      ****                 
 129:.\main.c      ****                 angles[1] = (az >= 0) ? 0 : 180;
 358              		.loc 1 129 0
 359 0130 BDF81230 		ldrh	r3, [sp, #18]
 360 0134 13F4004F 		tst	r3, #32768
 361 0138 01D1     		bne	.L26
 362 013a 0022     		movs	r2, #0
 363 013c 00E0     		b	.L19
 364              	.L26:
 365 013e B422     		movs	r2, #180
 366              	.L19:
 367              		.loc 1 129 0 is_stmt 0 discriminator 4
 368 0140 ADF80620 		strh	r2, [sp, #6]	@ movhi
 130:.\main.c      ****                 angles[3] = (az >= 0) ? 0 : 180;
 369              		.loc 1 130 0 is_stmt 1 discriminator 4
 370 0144 13F4004F 		tst	r3, #32768
 371 0148 01D1     		bne	.L27
 372              		.loc 1 130 0 is_stmt 0
 373 014a 0023     		movs	r3, #0
 374 014c 00E0     		b	.L20
 375              	.L27:
 376 014e B423     		movs	r3, #180
 377              	.L20:
 378              		.loc 1 130 0 discriminator 4
 379 0150 ADF80A30 		strh	r3, [sp, #10]	@ movhi
 131:.\main.c      ****                 angles[0] = screenAtan(fracFull[3]);
 380              		.loc 1 131 0 is_stmt 1 discriminator 4
 381 0154 FFF7FEFF 		bl	screenAtan
 382              	.LVL28:
ARM GAS  C:\Users\ericz\AppData\Local\Temp\cchvyIUM.s 			page 10


 383 0158 ADF80400 		strh	r0, [sp, #4]	@ movhi
 132:.\main.c      ****                 angles[2] = screenAtan(fracFull[1]);
 384              		.loc 1 132 0 discriminator 4
 385 015c 9DF80D00 		ldrb	r0, [sp, #13]	@ zero_extendqisi2
 386 0160 FFF7FEFF 		bl	screenAtan
 387              	.LVL29:
 388 0164 ADF80800 		strh	r0, [sp, #8]	@ movhi
 389 0168 28E0     		b	.L21
 390              	.L18:
 133:.\main.c      ****             } else {                                        // tilting along the other axis
 134:.\main.c      ****                 fracFull[1] = 128;
 391              		.loc 1 134 0
 392 016a 8022     		movs	r2, #128
 393 016c 8DF80D20 		strb	r2, [sp, #13]
 135:.\main.c      ****                 fracFull[3] = 128;
 394              		.loc 1 135 0
 395 0170 8DF80F20 		strb	r2, [sp, #15]
 136:.\main.c      ****                 fracFull[0] = 128 + (uint8_t) (ay >> 8);
 396              		.loc 1 136 0
 397 0174 1B0A     		lsrs	r3, r3, #8
 398 0176 83EA0200 		eor	r0, r3, r2
 399 017a 8DF80C00 		strb	r0, [sp, #12]
 137:.\main.c      ****                 fracFull[2] = 128 - (uint8_t) (ay >> 8);
 400              		.loc 1 137 0
 401 017e D31A     		subs	r3, r2, r3
 402 0180 8DF80E30 		strb	r3, [sp, #14]
 138:.\main.c      ****                 
 139:.\main.c      ****                 angles[0] = (az >= 0) ? 0 : 180;
 403              		.loc 1 139 0
 404 0184 BDF81230 		ldrh	r3, [sp, #18]
 405 0188 13F4004F 		tst	r3, #32768
 406 018c 01D1     		bne	.L28
 407 018e 0022     		movs	r2, #0
 408 0190 00E0     		b	.L22
 409              	.L28:
 410 0192 B422     		movs	r2, #180
 411              	.L22:
 412              		.loc 1 139 0 is_stmt 0 discriminator 4
 413 0194 ADF80420 		strh	r2, [sp, #4]	@ movhi
 140:.\main.c      ****                 angles[2] = (az >= 0) ? 0 : 180;
 414              		.loc 1 140 0 is_stmt 1 discriminator 4
 415 0198 13F4004F 		tst	r3, #32768
 416 019c 01D1     		bne	.L29
 417              		.loc 1 140 0 is_stmt 0
 418 019e 0023     		movs	r3, #0
 419 01a0 00E0     		b	.L23
 420              	.L29:
 421 01a2 B423     		movs	r3, #180
 422              	.L23:
 423              		.loc 1 140 0 discriminator 4
 424 01a4 ADF80830 		strh	r3, [sp, #8]	@ movhi
 141:.\main.c      ****                 angles[1] = screenAtan(fracFull[0]);
 425              		.loc 1 141 0 is_stmt 1 discriminator 4
 426 01a8 FFF7FEFF 		bl	screenAtan
 427              	.LVL30:
 428 01ac ADF80600 		strh	r0, [sp, #6]	@ movhi
 142:.\main.c      ****                 angles[3] = screenAtan(fracFull[2]);
ARM GAS  C:\Users\ericz\AppData\Local\Temp\cchvyIUM.s 			page 11


 429              		.loc 1 142 0 discriminator 4
 430 01b0 9DF80E00 		ldrb	r0, [sp, #14]	@ zero_extendqisi2
 431 01b4 FFF7FEFF 		bl	screenAtan
 432              	.LVL31:
 433 01b8 ADF80A00 		strh	r0, [sp, #10]	@ movhi
 434              	.L21:
 143:.\main.c      ****             }
 144:.\main.c      ****             
 145:.\main.c      ****             drawLiquid(fracFull, angles);
 435              		.loc 1 145 0
 436 01bc 03A8     		add	r0, sp, #12
 437 01be 01A9     		add	r1, sp, #4
 438 01c0 FFF7FEFF 		bl	drawLiquid
 439              	.LVL32:
 440 01c4 60E7     		b	.L13
 441              	.L17:
 146:.\main.c      ****             
 147:.\main.c      ****         // =============================================
 148:.\main.c      ****         // Mode 1: snow globe
 149:.\main.c      ****         // =============================================
 150:.\main.c      ****         } else if (mode == 1) {
 442              		.loc 1 150 0
 443 01c6 184B     		ldr	r3, .L31+16
 444 01c8 1B78     		ldrb	r3, [r3]	@ zero_extendqisi2
 445 01ca DBB2     		uxtb	r3, r3
 446 01cc 012B     		cmp	r3, #1
 447 01ce 0FD1     		bne	.L25
 151:.\main.c      ****             Read_Accel_Data(&ax, &ay, &az);
 448              		.loc 1 151 0
 449 01d0 0DF11600 		add	r0, sp, #22
 450 01d4 05A9     		add	r1, sp, #20
 451 01d6 0DF11202 		add	r2, sp, #18
 452 01da FFF7FEFF 		bl	Read_Accel_Data
 453              	.LVL33:
 152:.\main.c      ****             snowglobeUpdate(ax, ay, az);
 454              		.loc 1 152 0
 455 01de BDF91600 		ldrsh	r0, [sp, #22]
 456 01e2 BDF91410 		ldrsh	r1, [sp, #20]
 457 01e6 BDF91220 		ldrsh	r2, [sp, #18]
 458 01ea FFF7FEFF 		bl	snowglobeUpdate
 459              	.LVL34:
 460 01ee 4BE7     		b	.L13
 461              	.L25:
 153:.\main.c      ****             
 154:.\main.c      ****         // =============================================
 155:.\main.c      ****         // Mode 2: lantern mode
 156:.\main.c      ****         // =============================================     
 157:.\main.c      ****         } else if (mode == 2) {
 462              		.loc 1 157 0
 463 01f0 0D4B     		ldr	r3, .L31+16
 464 01f2 1B78     		ldrb	r3, [r3]	@ zero_extendqisi2
 465 01f4 DBB2     		uxtb	r3, r3
 466 01f6 022B     		cmp	r3, #2
 467 01f8 7FF446AF 		bne	.L13
 158:.\main.c      ****             if (lanternModeChanged) {
 468              		.loc 1 158 0
 469 01fc 0A4B     		ldr	r3, .L31+16
ARM GAS  C:\Users\ericz\AppData\Local\Temp\cchvyIUM.s 			page 12


 470 01fe DB78     		ldrb	r3, [r3, #3]	@ zero_extendqisi2
 471 0200 13F0FF0F 		tst	r3, #255
 472 0204 3FF440AF 		beq	.L13
 159:.\main.c      ****                 lanternModeChanged = 0;
 473              		.loc 1 159 0
 474 0208 074B     		ldr	r3, .L31+16
 475 020a 0022     		movs	r2, #0
 476 020c DA70     		strb	r2, [r3, #3]
 160:.\main.c      ****                 lightLantern(lanternMode);
 477              		.loc 1 160 0
 478 020e 9878     		ldrb	r0, [r3, #2]	@ zero_extendqisi2
 479 0210 FFF7FEFF 		bl	lightLantern
 480              	.LVL35:
 481 0214 38E7     		b	.L13
 482              	.L32:
 483 0216 00BF     		.align	2
 484              	.L31:
 485 0218 00000000 		.word	Mode_Handler
 486 021c 00000000 		.word	.LANCHOR2
 487 0220 00000000 		.word	Bright_Handler
 488 0224 00000000 		.word	LanternToggle_Handler
 489 0228 00000000 		.word	.LANCHOR0
 490 022c 00000000 		.word	.LANCHOR1
 491              		.cfi_endproc
 492              	.LFE66:
 493              		.size	main, .-main
 494              		.global	brightnessChanged
 495              		.global	brightness
 496              		.global	brightIdx
 497              		.global	lanternModeChanged
 498              		.global	lanternMode
 499              		.global	mode_changed
 500              		.global	mode
 501              		.comm	sineBrightness,256,4
 502              		.section	.rodata
 503              		.align	2
 504              		.set	.LANCHOR2,. + 0
 505              	.LC0:
 506 0000 80       		.byte	-128
 507 0001 80       		.byte	-128
 508 0002 80       		.byte	-128
 509 0003 80       		.byte	-128
 510              		.data
 511              		.set	.LANCHOR1,. + 0
 512              		.type	brightness, %object
 513              		.size	brightness, 1
 514              	brightness:
 515 0000 FF       		.byte	-1
 516              		.bss
 517              		.set	.LANCHOR0,. + 0
 518              		.type	mode, %object
 519              		.size	mode, 1
 520              	mode:
 521 0000 00       		.space	1
 522              		.type	mode_changed, %object
 523              		.size	mode_changed, 1
 524              	mode_changed:
ARM GAS  C:\Users\ericz\AppData\Local\Temp\cchvyIUM.s 			page 13


 525 0001 00       		.space	1
 526              		.type	lanternMode, %object
 527              		.size	lanternMode, 1
 528              	lanternMode:
 529 0002 00       		.space	1
 530              		.type	lanternModeChanged, %object
 531              		.size	lanternModeChanged, 1
 532              	lanternModeChanged:
 533 0003 00       		.space	1
 534              		.type	brightnessChanged, %object
 535              		.size	brightnessChanged, 1
 536              	brightnessChanged:
 537 0004 00       		.space	1
 538              		.type	brightIdx, %object
 539              		.size	brightIdx, 1
 540              	brightIdx:
 541 0005 00       		.space	1
 542              		.text
 543              	.Letext0:
 544              		.file 2 "c:\\program files (x86)\\cypress\\psoc creator\\3.3\\psoc creator\\import\\gnu\\arm\\4.9.
 545              		.file 3 "c:\\program files (x86)\\cypress\\psoc creator\\3.3\\psoc creator\\import\\gnu\\arm\\4.9.
 546              		.file 4 "Generated_Source\\PSoC5/cytypes.h"
 547              		.file 5 "Generated_Source\\PSoC5/core_cm3.h"
 548              		.file 6 ".\\lantern.h"
 549              		.file 7 "Generated_Source\\PSoC5/SPIM_0.h"
 550              		.file 8 "Generated_Source\\PSoC5/SPIM_1.h"
 551              		.file 9 "Generated_Source\\PSoC5/SPIM_2.h"
 552              		.file 10 "Generated_Source\\PSoC5/SPIM_3.h"
 553              		.file 11 ".\\dma_util.h"
 554              		.file 12 ".\\tft.h"
 555              		.file 13 "Generated_Source\\PSoC5/I2C_1.h"
 556              		.file 14 ".\\imu.h"
 557              		.file 15 "Generated_Source\\PSoC5/MODE_ISR.h"
 558              		.file 16 "Generated_Source\\PSoC5/BRIGHT_ISR.h"
 559              		.file 17 "Generated_Source\\PSoC5/LANTERN_TOGGLE_ISR.h"
 560              		.file 18 "Generated_Source\\PSoC5/PWM_1.h"
 561              		.file 19 "Generated_Source\\PSoC5/LED_MODE_1.h"
 562              		.file 20 "Generated_Source\\PSoC5/LED_MODE_2.h"
 563              		.file 21 ".\\snowglobe.h"
 564              		.file 22 ".\\rotate_liquid.h"