ARM GAS  C:\Users\ericz\AppData\Local\Temp\ccKXUKbe.s 			page 1


   1              		.syntax unified
   2              		.cpu cortex-m3
   3              		.fpu softvfp
   4              		.eabi_attribute 20, 1
   5              		.eabi_attribute 21, 1
   6              		.eabi_attribute 23, 3
   7              		.eabi_attribute 24, 1
   8              		.eabi_attribute 25, 1
   9              		.eabi_attribute 26, 1
  10              		.eabi_attribute 30, 1
  11              		.eabi_attribute 34, 1
  12              		.eabi_attribute 18, 4
  13              		.thumb
  14              		.file	"rotate_liquid.c"
  15              		.text
  16              	.Ltext0:
  17              		.cfi_sections	.debug_frame
  18              		.section	.text.adcToAngle,"ax",%progbits
  19              		.align	2
  20              		.global	adcToAngle
  21              		.thumb
  22              		.thumb_func
  23              		.type	adcToAngle, %function
  24              	adcToAngle:
  25              	.LFB63:
  26              		.file 1 ".\\rotate_liquid.c"
   1:.\rotate_liquid.c **** #include <project.h>
   2:.\rotate_liquid.c **** #include <stdlib.h>
   3:.\rotate_liquid.c **** #include "tft.h"
   4:.\rotate_liquid.c **** #include "rotate_liquid.h"
   5:.\rotate_liquid.c **** #include "trig.h"
   6:.\rotate_liquid.c **** #include "dma_util.h"
   7:.\rotate_liquid.c **** 
   8:.\rotate_liquid.c **** //==============================================================
   9:.\rotate_liquid.c **** // adcToAngle
  10:.\rotate_liquid.c **** // convert a 16 bit ADC measurement to an angle from 0 to 360 (degrees)
  11:.\rotate_liquid.c **** //==============================================================
  12:.\rotate_liquid.c **** uint16_t adcToAngle(uint16_t adcVal)
  13:.\rotate_liquid.c **** {
  27              		.loc 1 13 0
  28              		.cfi_startproc
  29              		@ args = 0, pretend = 0, frame = 0
  30              		@ frame_needed = 0, uses_anonymous_args = 0
  31              		@ link register save eliminated.
  32              	.LVL0:
  14:.\rotate_liquid.c ****     return (uint16_t) ((((uint32_t) adcVal) * 360UL) >> 16);
  33              		.loc 1 14 0
  34 0000 4FF4B473 		mov	r3, #360
  35 0004 03FB00F0 		mul	r0, r3, r0
  36              	.LVL1:
  15:.\rotate_liquid.c **** }
  37              		.loc 1 15 0
  38 0008 000C     		lsrs	r0, r0, #16
  39 000a 7047     		bx	lr
  40              		.cfi_endproc
  41              	.LFE63:
  42              		.size	adcToAngle, .-adcToAngle
ARM GAS  C:\Users\ericz\AppData\Local\Temp\ccKXUKbe.s 			page 2


  43              		.section	.text.screenAtan,"ax",%progbits
  44              		.align	2
  45              		.global	screenAtan
  46              		.thumb
  47              		.thumb_func
  48              		.type	screenAtan, %function
  49              	screenAtan:
  50              	.LFB64:
  16:.\rotate_liquid.c **** 
  17:.\rotate_liquid.c **** 
  18:.\rotate_liquid.c **** //==============================================================
  19:.\rotate_liquid.c **** // screenAtan
  20:.\rotate_liquid.c **** // convert a difference in fracFull on two screens into the angle 
  21:.\rotate_liquid.c **** // for the screens on the sides 
  22:.\rotate_liquid.c **** //==============================================================
  23:.\rotate_liquid.c **** 
  24:.\rotate_liquid.c **** const uint16_t atan_lut[] = {
  25:.\rotate_liquid.c ****     323, 323, 324, 324, 324, 324, 324, 325, 325, 325, 325, 326, 326, 326, 326, 326,
  26:.\rotate_liquid.c ****     327, 327, 327, 327, 328, 328, 328, 328, 329, 329, 329, 329, 330, 330, 330, 330,
  27:.\rotate_liquid.c ****     331, 331, 331, 331, 332, 332, 332, 332, 333, 333, 333, 334, 334, 334, 334, 335,
  28:.\rotate_liquid.c ****     335, 335, 335, 336, 336, 336, 337, 337, 337, 337, 338, 338, 338, 339, 339, 339,
  29:.\rotate_liquid.c ****     339, 340, 340, 340, 341, 341, 341, 342, 342, 342, 342, 343, 343, 343, 344, 344,
  30:.\rotate_liquid.c ****     344, 345, 345, 345, 346, 346, 346, 346, 347, 347, 347, 348, 348, 348, 349, 349,
  31:.\rotate_liquid.c ****     349, 350, 350, 350, 351, 351, 351, 352, 352, 352, 353, 353, 353, 354, 354, 354,
  32:.\rotate_liquid.c ****     355, 355, 355, 356, 356, 356, 357, 357, 357, 358, 358, 358, 359, 359, 359, 0,
  33:.\rotate_liquid.c ****     0, 0, 1, 1, 1, 2, 2, 2, 3, 3, 3, 4, 4, 4, 5, 5, 5, 6, 6, 6, 7, 7, 7, 8, 8, 8, 9,
  34:.\rotate_liquid.c ****     9, 9, 10, 10, 10, 11, 11, 11, 12, 12, 12, 13, 13, 13, 14, 14, 14, 14, 15, 15, 15,
  35:.\rotate_liquid.c ****     16, 16, 16, 17, 17, 17, 18, 18, 18, 18, 19, 19, 19, 20, 20, 20, 21, 21, 21, 21, 22,
  36:.\rotate_liquid.c ****     22, 22, 23, 23, 23, 23, 24, 24, 24, 25, 25, 25, 25, 26, 26, 26, 26, 27, 27, 27, 28,
  37:.\rotate_liquid.c ****     28, 28, 28, 29, 29, 29, 29, 30, 30, 30, 30, 31, 31, 31, 31, 32, 32, 32, 32, 33, 33,
  38:.\rotate_liquid.c ****     33, 33, 34, 34, 34, 34, 34, 35, 35, 35, 35, 36, 36, 36, 36, 36, 37
  39:.\rotate_liquid.c **** };
  40:.\rotate_liquid.c **** 
  41:.\rotate_liquid.c **** uint16_t screenAtan(uint8_t fracFull_left) {
  51              		.loc 1 41 0
  52              		.cfi_startproc
  53              		@ args = 0, pretend = 0, frame = 0
  54              		@ frame_needed = 0, uses_anonymous_args = 0
  55              		@ link register save eliminated.
  56              	.LVL2:
  42:.\rotate_liquid.c ****     return atan_lut[fracFull_left];
  43:.\rotate_liquid.c **** }
  57              		.loc 1 43 0
  58 0000 014B     		ldr	r3, .L3
  59 0002 33F81000 		ldrh	r0, [r3, r0, lsl #1]
  60              	.LVL3:
  61 0006 7047     		bx	lr
  62              	.L4:
  63              		.align	2
  64              	.L3:
  65 0008 00000000 		.word	.LANCHOR0
  66              		.cfi_endproc
  67              	.LFE64:
  68              		.size	screenAtan, .-screenAtan
  69              		.section	.text.drawLiquid,"ax",%progbits
  70              		.align	2
  71              		.global	drawLiquid
ARM GAS  C:\Users\ericz\AppData\Local\Temp\ccKXUKbe.s 			page 3


  72              		.thumb
  73              		.thumb_func
  74              		.type	drawLiquid, %function
  75              	drawLiquid:
  76              	.LFB65:
  44:.\rotate_liquid.c **** 
  45:.\rotate_liquid.c **** 
  46:.\rotate_liquid.c **** //==============================================================
  47:.\rotate_liquid.c **** // drawLiquid
  48:.\rotate_liquid.c **** // draw the liquid which can move around in the cup
  49:.\rotate_liquid.c **** //==============================================================
  50:.\rotate_liquid.c **** void drawLiquid(uint8_t *fracFull, uint16_t *angles)
  51:.\rotate_liquid.c **** {
  77              		.loc 1 51 0
  78              		.cfi_startproc
  79              		@ args = 0, pretend = 0, frame = 80
  80              		@ frame_needed = 0, uses_anonymous_args = 0
  81              	.LVL4:
  82 0000 2DE9F04F 		push	{r4, r5, r6, r7, r8, r9, r10, fp, lr}
  83              		.cfi_def_cfa_offset 36
  84              		.cfi_offset 4, -36
  85              		.cfi_offset 5, -32
  86              		.cfi_offset 6, -28
  87              		.cfi_offset 7, -24
  88              		.cfi_offset 8, -20
  89              		.cfi_offset 9, -16
  90              		.cfi_offset 10, -12
  91              		.cfi_offset 11, -8
  92              		.cfi_offset 14, -4
  93 0004 97B0     		sub	sp, sp, #92
  94              		.cfi_def_cfa_offset 128
  95 0006 0746     		mov	r7, r0
  96 0008 0E46     		mov	r6, r1
  97              	.LVL5:
  52:.\rotate_liquid.c ****     int32_t sinV[NUM_SCREENS], cosV[NUM_SCREENS];
  53:.\rotate_liquid.c ****     int32_t fillRow[NUM_SCREENS];
  54:.\rotate_liquid.c ****     int liquidLeft[NUM_SCREENS];
  55:.\rotate_liquid.c ****     int disp;
  56:.\rotate_liquid.c **** 
  57:.\rotate_liquid.c ****     for (disp = 0; disp < NUM_SCREENS; disp++) {
  98              		.loc 1 57 0
  99 000a 0024     		movs	r4, #0
 100 000c 2FE0     		b	.L6
 101              	.LVL6:
 102              	.L7:
  58:.\rotate_liquid.c ****         
  59:.\rotate_liquid.c ****         // determine the orientation of the liquid on each screen
  60:.\rotate_liquid.c ****         sinV[disp] = getSinQ15(angles[disp]);
 103              		.loc 1 60 0 discriminator 3
 104 000e 36F81400 		ldrh	r0, [r6, r4, lsl #1]
 105 0012 FFF7FEFF 		bl	getSinQ15
 106              	.LVL7:
 107 0016 8046     		mov	r8, r0
 108 0018 16AB     		add	r3, sp, #88
 109 001a 03EB8405 		add	r5, r3, r4, lsl #2
 110 001e 45F8100C 		str	r0, [r5, #-16]
  61:.\rotate_liquid.c ****         cosV[disp] = getCosQ15(angles[disp]);
ARM GAS  C:\Users\ericz\AppData\Local\Temp\ccKXUKbe.s 			page 4


 111              		.loc 1 61 0 discriminator 3
 112 0022 36F81400 		ldrh	r0, [r6, r4, lsl #1]
 113 0026 FFF7FEFF 		bl	getCosQ15
 114              	.LVL8:
 115 002a 45F8200C 		str	r0, [r5, #-32]
  62:.\rotate_liquid.c ****         liquidLeft[disp] = (sinV[disp] > 0);
 116              		.loc 1 62 0 discriminator 3
 117 002e B8F1000F 		cmp	r8, #0
 118 0032 D4BF     		ite	le
 119 0034 0023     		movle	r3, #0
 120 0036 0123     		movgt	r3, #1
 121 0038 45F8403C 		str	r3, [r5, #-64]
  63:.\rotate_liquid.c ****         
  64:.\rotate_liquid.c ****         fillRow[disp] = (int32_t)SCREEN_HEIGHT - (((int32_t)fracFull[disp] * SCREEN_HEIGHT) >> 8);
 122              		.loc 1 64 0 discriminator 3
 123 003c 3B5D     		ldrb	r3, [r7, r4]	@ zero_extendqisi2
 124 003e C3EB0313 		rsb	r3, r3, r3, lsl #4
 125 0042 5B01     		lsls	r3, r3, #5
 126 0044 1B12     		asrs	r3, r3, #8
 127 0046 C3F5F073 		rsb	r3, r3, #480
 128 004a 45F8303C 		str	r3, [r5, #-48]
  65:.\rotate_liquid.c ****         
  66:.\rotate_liquid.c ****         setRowCol(disp, 0, SCREEN_WIDTH - 1, 0, SCREEN_HEIGHT - 1);     // set drawing window to fu
 129              		.loc 1 66 0 discriminator 3
 130 004e E5B2     		uxtb	r5, r4
 131 0050 40F2DF13 		movw	r3, #479
 132 0054 0093     		str	r3, [sp]
 133 0056 2846     		mov	r0, r5
 134 0058 0021     		movs	r1, #0
 135 005a 40F23F12 		movw	r2, #319
 136 005e 0B46     		mov	r3, r1
 137 0060 FFF7FEFF 		bl	setRowCol
 138              	.LVL9:
  67:.\rotate_liquid.c ****         write8_a0(disp, 0x2C);                                          // prepare to send data to 
 139              		.loc 1 67 0 discriminator 3
 140 0064 2846     		mov	r0, r5
 141 0066 2C21     		movs	r1, #44
 142 0068 FFF7FEFF 		bl	write8_a0
 143              	.LVL10:
  57:.\rotate_liquid.c ****         
 144              		.loc 1 57 0 discriminator 3
 145 006c 0134     		adds	r4, r4, #1
 146              	.LVL11:
 147              	.L6:
  57:.\rotate_liquid.c ****         
 148              		.loc 1 57 0 is_stmt 0 discriminator 1
 149 006e 032C     		cmp	r4, #3
 150 0070 CDDD     		ble	.L7
  68:.\rotate_liquid.c ****     }
  69:.\rotate_liquid.c **** 
  70:.\rotate_liquid.c ****     // set each screen to receive data
  71:.\rotate_liquid.c ****     DC0_Write(1u);
 151              		.loc 1 71 0 is_stmt 1
 152 0072 0120     		movs	r0, #1
 153 0074 FFF7FEFF 		bl	DC0_Write
 154              	.LVL12:
  72:.\rotate_liquid.c ****     DC1_Write(1u);
ARM GAS  C:\Users\ericz\AppData\Local\Temp\ccKXUKbe.s 			page 5


 155              		.loc 1 72 0
 156 0078 0120     		movs	r0, #1
 157 007a FFF7FEFF 		bl	DC1_Write
 158              	.LVL13:
  73:.\rotate_liquid.c ****     DC2_Write(1u);
 159              		.loc 1 73 0
 160 007e 0120     		movs	r0, #1
 161 0080 FFF7FEFF 		bl	DC2_Write
 162              	.LVL14:
  74:.\rotate_liquid.c ****     DC3_Write(1u);
 163              		.loc 1 74 0
 164 0084 0120     		movs	r0, #1
 165 0086 FFF7FEFF 		bl	DC3_Write
 166              	.LVL15:
  75:.\rotate_liquid.c **** 
  76:.\rotate_liquid.c ****     // ping pong pointers for DMA buffers
  77:.\rotate_liquid.c ****     uint8_t *fillBuf_0 = bufferA_0, *sendBuf_0 = bufferB_0;
  78:.\rotate_liquid.c ****     uint8_t *fillBuf_1 = bufferA_1, *sendBuf_1 = bufferB_1;
  79:.\rotate_liquid.c ****     uint8_t *fillBuf_2 = bufferA_2, *sendBuf_2 = bufferB_2;
  80:.\rotate_liquid.c ****     uint8_t *fillBuf_3 = bufferA_3, *sendBuf_3 = bufferB_3;
  81:.\rotate_liquid.c ****     
  82:.\rotate_liquid.c ****     uint8_t *tmp;
  83:.\rotate_liquid.c ****     int i, y;
  84:.\rotate_liquid.c **** 
  85:.\rotate_liquid.c ****     
  86:.\rotate_liquid.c ****     // write one line to each of the screens at a time, then write the next line
  87:.\rotate_liquid.c ****     for (y = 0; y < SCREEN_HEIGHT; y++) {
 167              		.loc 1 87 0
 168 008a 4FF00009 		mov	r9, #0
  80:.\rotate_liquid.c ****     
 169              		.loc 1 80 0
 170 008e AB4B     		ldr	r3, .L71
 171 0090 0593     		str	r3, [sp, #20]
 172 0092 DFF8C482 		ldr	r8, .L71+28
  79:.\rotate_liquid.c ****     uint8_t *fillBuf_3 = bufferA_3, *sendBuf_3 = bufferB_3;
 173              		.loc 1 79 0
 174 0096 AA4B     		ldr	r3, .L71+4
 175 0098 0493     		str	r3, [sp, #16]
 176 009a AA4F     		ldr	r7, .L71+8
 177              	.LVL16:
  78:.\rotate_liquid.c ****     uint8_t *fillBuf_2 = bufferA_2, *sendBuf_2 = bufferB_2;
 178              		.loc 1 78 0
 179 009c AA4B     		ldr	r3, .L71+12
 180 009e 0393     		str	r3, [sp, #12]
 181 00a0 AA4E     		ldr	r6, .L71+16
 182              	.LVL17:
  77:.\rotate_liquid.c ****     uint8_t *fillBuf_1 = bufferA_1, *sendBuf_1 = bufferB_1;
 183              		.loc 1 77 0
 184 00a2 AB4B     		ldr	r3, .L71+20
 185 00a4 0293     		str	r3, [sp, #8]
 186 00a6 AB4D     		ldr	r5, .L71+24
 187              		.loc 1 87 0
 188 00a8 77E1     		b	.L8
 189              	.LVL18:
 190              	.L53:
 191              	.LBB2:
  88:.\rotate_liquid.c **** 
ARM GAS  C:\Users\ericz\AppData\Local\Temp\ccKXUKbe.s 			page 6


  89:.\rotate_liquid.c ****         int32_t x_bound;
  90:.\rotate_liquid.c ****         uint8_t leftHi, leftLo, rightHi, rightLo;
  91:.\rotate_liquid.c **** 
  92:.\rotate_liquid.c ****         // ================== Display 0 ==================
  93:.\rotate_liquid.c ****         if (sinV[0] == 0) {
 192              		.loc 1 93 0
 193 00aa 129B     		ldr	r3, [sp, #72]
 194 00ac ABB9     		cbnz	r3, .L9
 195              	.LBB3:
  94:.\rotate_liquid.c ****             int isLiq = (cosV[0] < 0) ? (y >= fillRow[0]) : (y < (SCREEN_HEIGHT - fillRow[0]));
 196              		.loc 1 94 0
 197 00ae 0E9B     		ldr	r3, [sp, #56]
 198 00b0 002B     		cmp	r3, #0
 199 00b2 05DA     		bge	.L10
 200              		.loc 1 94 0 is_stmt 0 discriminator 1
 201 00b4 0A9B     		ldr	r3, [sp, #40]
 202 00b6 4B45     		cmp	r3, r9
 203 00b8 CCBF     		ite	gt
 204 00ba 0023     		movgt	r3, #0
 205 00bc 0123     		movle	r3, #1
 206 00be 06E0     		b	.L11
 207              	.L10:
 208              		.loc 1 94 0 discriminator 2
 209 00c0 0A9B     		ldr	r3, [sp, #40]
 210 00c2 C3F5F073 		rsb	r3, r3, #480
 211 00c6 4B45     		cmp	r3, r9
 212 00c8 D4BF     		ite	le
 213 00ca 0023     		movle	r3, #0
 214 00cc 0123     		movgt	r3, #1
 215              	.L11:
 216              	.LVL19:
  95:.\rotate_liquid.c ****             x_bound = isLiq ? 0 : SCREEN_WIDTH;
 217              		.loc 1 95 0 is_stmt 1 discriminator 4
 218 00ce 0BB1     		cbz	r3, .L54
 219              		.loc 1 95 0 is_stmt 0
 220 00d0 0024     		movs	r4, #0
 221 00d2 16E0     		b	.L13
 222              	.L54:
 223 00d4 4FF4A074 		mov	r4, #320
 224              	.LVL20:
 225 00d8 13E0     		b	.L13
 226              	.LVL21:
 227              	.L9:
 228              	.LBE3:
 229              	.LBB4:
  96:.\rotate_liquid.c ****         } else {
  97:.\rotate_liquid.c ****             int32_t dY2 = 2 * y - SCREEN_HEIGHT;
 230              		.loc 1 97 0 is_stmt 1
 231 00da A9F1F004 		sub	r4, r9, #240
 232 00de 6400     		lsls	r4, r4, #1
 233              	.LVL22:
  98:.\rotate_liquid.c ****             x_bound = (SCREEN_WIDTH * sinV[0] + dY2 * cosV[0]) / (2 * sinV[0]);
 234              		.loc 1 98 0
 235 00e0 03EB8301 		add	r1, r3, r3, lsl #2
 236 00e4 8901     		lsls	r1, r1, #6
 237 00e6 0E9A     		ldr	r2, [sp, #56]
 238 00e8 04FB0214 		mla	r4, r4, r2, r1
ARM GAS  C:\Users\ericz\AppData\Local\Temp\ccKXUKbe.s 			page 7


 239              	.LVL23:
 240 00ec 5B00     		lsls	r3, r3, #1
 241 00ee 94FBF3F4 		sdiv	r4, r4, r3
 242              	.LVL24:
  99:.\rotate_liquid.c ****             if (x_bound < 0) x_bound = 0;
 243              		.loc 1 99 0
 244 00f2 002C     		cmp	r4, #0
 245 00f4 00DA     		bge	.L14
 246 00f6 0024     		movs	r4, #0
 247              	.LVL25:
 248              	.L14:
 100:.\rotate_liquid.c ****             if (x_bound > SCREEN_WIDTH) x_bound = SCREEN_WIDTH;
 249              		.loc 1 100 0
 250 00f8 B4F5A07F 		cmp	r4, #320
 251 00fc 01DD     		ble	.L13
 252 00fe 4FF4A074 		mov	r4, #320
 253              	.LVL26:
 254              	.L13:
 255              	.LBE4:
 101:.\rotate_liquid.c ****         }
 102:.\rotate_liquid.c ****         if (liquidLeft[0]) { leftHi=0xFF; leftLo=0xFF; rightHi=0x00; rightLo=0x00; }
 256              		.loc 1 102 0
 257 0102 069B     		ldr	r3, [sp, #24]
 258 0104 23B1     		cbz	r3, .L57
 259 0106 4FF0000A 		mov	r10, #0
 260 010a 4FF0FF0B 		mov	fp, #255
 261 010e 03E0     		b	.L15
 262              	.L57:
 103:.\rotate_liquid.c ****         else               { leftHi=0x00; leftLo=0x00; rightHi=0xFF; rightLo=0xFF; }
 263              		.loc 1 103 0
 264 0110 4FF0FF0A 		mov	r10, #255
 265 0114 4FF0000B 		mov	fp, #0
 266              	.L15:
 267              	.LVL27:
 104:.\rotate_liquid.c **** 
 105:.\rotate_liquid.c ****         DMA_Wait_For_Completion(0);
 268              		.loc 1 105 0
 269 0118 0020     		movs	r0, #0
 270 011a FFF7FEFF 		bl	DMA_Wait_For_Completion
 271              	.LVL28:
 106:.\rotate_liquid.c ****         for (i = 0; i < x_bound; i++)
 272              		.loc 1 106 0
 273 011e 0023     		movs	r3, #0
 274 0120 06E0     		b	.L16
 275              	.LVL29:
 276              	.L17:
 107:.\rotate_liquid.c ****             { fillBuf_0[i*2]=leftHi; fillBuf_0[i*2+1]=leftLo; }
 277              		.loc 1 107 0 discriminator 3
 278 0122 05F813B0 		strb	fp, [r5, r3, lsl #1]
 279 0126 05EB4302 		add	r2, r5, r3, lsl #1
 280 012a 82F801B0 		strb	fp, [r2, #1]
 106:.\rotate_liquid.c ****         for (i = 0; i < x_bound; i++)
 281              		.loc 1 106 0 discriminator 3
 282 012e 0133     		adds	r3, r3, #1
 283              	.LVL30:
 284              	.L16:
 106:.\rotate_liquid.c ****         for (i = 0; i < x_bound; i++)
ARM GAS  C:\Users\ericz\AppData\Local\Temp\ccKXUKbe.s 			page 8


 285              		.loc 1 106 0 is_stmt 0 discriminator 1
 286 0130 A342     		cmp	r3, r4
 287 0132 F6DB     		blt	.L17
 288 0134 06E0     		b	.L18
 289              	.LVL31:
 290              	.L19:
 108:.\rotate_liquid.c ****         for (i = x_bound; i < SCREEN_WIDTH; i++)
 109:.\rotate_liquid.c ****             { fillBuf_0[i*2]=rightHi; fillBuf_0[i*2+1]=rightLo; }
 291              		.loc 1 109 0 is_stmt 1 discriminator 3
 292 0136 05F814A0 		strb	r10, [r5, r4, lsl #1]
 293 013a 05EB4403 		add	r3, r5, r4, lsl #1
 294 013e 83F801A0 		strb	r10, [r3, #1]
 108:.\rotate_liquid.c ****         for (i = x_bound; i < SCREEN_WIDTH; i++)
 295              		.loc 1 108 0 discriminator 3
 296 0142 0134     		adds	r4, r4, #1
 297              	.LVL32:
 298              	.L18:
 108:.\rotate_liquid.c ****         for (i = x_bound; i < SCREEN_WIDTH; i++)
 299              		.loc 1 108 0 is_stmt 0 discriminator 1
 300 0144 B4F5A07F 		cmp	r4, #320
 301 0148 F5DB     		blt	.L19
 110:.\rotate_liquid.c **** 
 111:.\rotate_liquid.c ****         DMA_Feed_SPI_Async(0, fillBuf_0, (uint16)(SCREEN_WIDTH * 2));
 302              		.loc 1 111 0 is_stmt 1
 303 014a 0020     		movs	r0, #0
 304 014c 2946     		mov	r1, r5
 305 014e 4FF42072 		mov	r2, #640
 306 0152 FFF7FEFF 		bl	DMA_Feed_SPI_Async
 307              	.LVL33:
 112:.\rotate_liquid.c ****         tmp=fillBuf_0; fillBuf_0=sendBuf_0; sendBuf_0=tmp;
 113:.\rotate_liquid.c **** 
 114:.\rotate_liquid.c ****         
 115:.\rotate_liquid.c ****         // ================== Display 1 ==================
 116:.\rotate_liquid.c ****         if (sinV[1] == 0) {
 308              		.loc 1 116 0
 309 0156 139B     		ldr	r3, [sp, #76]
 310 0158 ABB9     		cbnz	r3, .L20
 311              	.LBB5:
 117:.\rotate_liquid.c ****             int isLiq = (cosV[1] < 0) ? (y >= fillRow[1]) : (y < (SCREEN_HEIGHT - fillRow[1]));
 312              		.loc 1 117 0
 313 015a 0F9B     		ldr	r3, [sp, #60]
 314 015c 002B     		cmp	r3, #0
 315 015e 05DA     		bge	.L21
 316              		.loc 1 117 0 is_stmt 0 discriminator 1
 317 0160 0B9B     		ldr	r3, [sp, #44]
 318 0162 4B45     		cmp	r3, r9
 319 0164 CCBF     		ite	gt
 320 0166 0023     		movgt	r3, #0
 321 0168 0123     		movle	r3, #1
 322 016a 06E0     		b	.L22
 323              	.L21:
 324              		.loc 1 117 0 discriminator 2
 325 016c 0B9B     		ldr	r3, [sp, #44]
 326 016e C3F5F073 		rsb	r3, r3, #480
 327 0172 4B45     		cmp	r3, r9
 328 0174 D4BF     		ite	le
 329 0176 0023     		movle	r3, #0
ARM GAS  C:\Users\ericz\AppData\Local\Temp\ccKXUKbe.s 			page 9


 330 0178 0123     		movgt	r3, #1
 331              	.L22:
 332              	.LVL34:
 118:.\rotate_liquid.c ****             x_bound = isLiq ? 0 : SCREEN_WIDTH;
 333              		.loc 1 118 0 is_stmt 1 discriminator 4
 334 017a 0BB1     		cbz	r3, .L58
 335              		.loc 1 118 0 is_stmt 0
 336 017c 0024     		movs	r4, #0
 337              	.LVL35:
 338 017e 16E0     		b	.L24
 339              	.LVL36:
 340              	.L58:
 341 0180 4FF4A074 		mov	r4, #320
 342              	.LVL37:
 343 0184 13E0     		b	.L24
 344              	.LVL38:
 345              	.L20:
 346              	.LBE5:
 347              	.LBB6:
 119:.\rotate_liquid.c ****         } else {
 120:.\rotate_liquid.c ****             int32_t dY2 = 2 * y - SCREEN_HEIGHT;
 348              		.loc 1 120 0 is_stmt 1
 349 0186 A9F1F004 		sub	r4, r9, #240
 350              	.LVL39:
 351 018a 6400     		lsls	r4, r4, #1
 352              	.LVL40:
 121:.\rotate_liquid.c ****             x_bound = (SCREEN_WIDTH * sinV[1] + dY2 * cosV[1]) / (2 * sinV[1]);
 353              		.loc 1 121 0
 354 018c 03EB8301 		add	r1, r3, r3, lsl #2
 355 0190 8901     		lsls	r1, r1, #6
 356 0192 0F9A     		ldr	r2, [sp, #60]
 357 0194 04FB0214 		mla	r4, r4, r2, r1
 358              	.LVL41:
 359 0198 5B00     		lsls	r3, r3, #1
 360 019a 94FBF3F4 		sdiv	r4, r4, r3
 361              	.LVL42:
 122:.\rotate_liquid.c ****             if (x_bound < 0) x_bound = 0;
 362              		.loc 1 122 0
 363 019e 002C     		cmp	r4, #0
 364 01a0 00DA     		bge	.L25
 365 01a2 0024     		movs	r4, #0
 366              	.LVL43:
 367              	.L25:
 123:.\rotate_liquid.c ****             if (x_bound > SCREEN_WIDTH) x_bound = SCREEN_WIDTH;
 368              		.loc 1 123 0
 369 01a4 B4F5A07F 		cmp	r4, #320
 370 01a8 01DD     		ble	.L24
 371 01aa 4FF4A074 		mov	r4, #320
 372              	.LVL44:
 373              	.L24:
 374              	.LBE6:
 124:.\rotate_liquid.c ****         }
 125:.\rotate_liquid.c ****         if (liquidLeft[1]) { leftHi=0xFF; leftLo=0xFF; rightHi=0x00; rightLo=0x00; }
 375              		.loc 1 125 0
 376 01ae 079B     		ldr	r3, [sp, #28]
 377 01b0 23B1     		cbz	r3, .L61
 378 01b2 4FF0000A 		mov	r10, #0
ARM GAS  C:\Users\ericz\AppData\Local\Temp\ccKXUKbe.s 			page 10


 379              	.LVL45:
 380 01b6 4FF0FF0B 		mov	fp, #255
 381              	.LVL46:
 382 01ba 03E0     		b	.L26
 383              	.LVL47:
 384              	.L61:
 126:.\rotate_liquid.c ****         else               { leftHi=0x00; leftLo=0x00; rightHi=0xFF; rightLo=0xFF; }
 385              		.loc 1 126 0
 386 01bc 4FF0FF0A 		mov	r10, #255
 387              	.LVL48:
 388 01c0 4FF0000B 		mov	fp, #0
 389              	.LVL49:
 390              	.L26:
 127:.\rotate_liquid.c **** 
 128:.\rotate_liquid.c ****         DMA_Wait_For_Completion(1);
 391              		.loc 1 128 0
 392 01c4 0120     		movs	r0, #1
 393 01c6 FFF7FEFF 		bl	DMA_Wait_For_Completion
 394              	.LVL50:
 129:.\rotate_liquid.c ****         for (i = 0; i < x_bound; i++)
 395              		.loc 1 129 0
 396 01ca 0023     		movs	r3, #0
 397 01cc 06E0     		b	.L27
 398              	.LVL51:
 399              	.L28:
 130:.\rotate_liquid.c ****             { fillBuf_1[i*2]=leftHi; fillBuf_1[i*2+1]=leftLo; }
 400              		.loc 1 130 0 discriminator 3
 401 01ce 06F813B0 		strb	fp, [r6, r3, lsl #1]
 402 01d2 06EB4302 		add	r2, r6, r3, lsl #1
 403 01d6 82F801B0 		strb	fp, [r2, #1]
 129:.\rotate_liquid.c ****         for (i = 0; i < x_bound; i++)
 404              		.loc 1 129 0 discriminator 3
 405 01da 0133     		adds	r3, r3, #1
 406              	.LVL52:
 407              	.L27:
 129:.\rotate_liquid.c ****         for (i = 0; i < x_bound; i++)
 408              		.loc 1 129 0 is_stmt 0 discriminator 1
 409 01dc A342     		cmp	r3, r4
 410 01de F6DB     		blt	.L28
 411 01e0 06E0     		b	.L29
 412              	.LVL53:
 413              	.L30:
 131:.\rotate_liquid.c ****         for (i = x_bound; i < SCREEN_WIDTH; i++)
 132:.\rotate_liquid.c ****             { fillBuf_1[i*2]=rightHi; fillBuf_1[i*2+1]=rightLo; }
 414              		.loc 1 132 0 is_stmt 1 discriminator 3
 415 01e2 06F814A0 		strb	r10, [r6, r4, lsl #1]
 416 01e6 06EB4403 		add	r3, r6, r4, lsl #1
 417 01ea 83F801A0 		strb	r10, [r3, #1]
 131:.\rotate_liquid.c ****         for (i = x_bound; i < SCREEN_WIDTH; i++)
 418              		.loc 1 131 0 discriminator 3
 419 01ee 0134     		adds	r4, r4, #1
 420              	.LVL54:
 421              	.L29:
 131:.\rotate_liquid.c ****         for (i = x_bound; i < SCREEN_WIDTH; i++)
 422              		.loc 1 131 0 is_stmt 0 discriminator 1
 423 01f0 B4F5A07F 		cmp	r4, #320
 424 01f4 F5DB     		blt	.L30
ARM GAS  C:\Users\ericz\AppData\Local\Temp\ccKXUKbe.s 			page 11


 133:.\rotate_liquid.c **** 
 134:.\rotate_liquid.c ****         DMA_Feed_SPI_Async(1, fillBuf_1, (uint16)(SCREEN_WIDTH * 2));
 425              		.loc 1 134 0 is_stmt 1
 426 01f6 0120     		movs	r0, #1
 427 01f8 3146     		mov	r1, r6
 428 01fa 4FF42072 		mov	r2, #640
 429 01fe FFF7FEFF 		bl	DMA_Feed_SPI_Async
 430              	.LVL55:
 135:.\rotate_liquid.c ****         tmp=fillBuf_1; fillBuf_1=sendBuf_1; sendBuf_1=tmp;
 136:.\rotate_liquid.c **** 
 137:.\rotate_liquid.c ****         
 138:.\rotate_liquid.c ****         // ================== Display 2 ==================
 139:.\rotate_liquid.c ****         if (sinV[2] == 0) {
 431              		.loc 1 139 0
 432 0202 149B     		ldr	r3, [sp, #80]
 433 0204 ABB9     		cbnz	r3, .L31
 434              	.LBB7:
 140:.\rotate_liquid.c ****             int isLiq = (cosV[2] < 0) ? (y >= fillRow[2]) : (y < (SCREEN_HEIGHT - fillRow[2]));
 435              		.loc 1 140 0
 436 0206 109B     		ldr	r3, [sp, #64]
 437 0208 002B     		cmp	r3, #0
 438 020a 05DA     		bge	.L32
 439              		.loc 1 140 0 is_stmt 0 discriminator 1
 440 020c 0C9B     		ldr	r3, [sp, #48]
 441 020e 4B45     		cmp	r3, r9
 442 0210 CCBF     		ite	gt
 443 0212 0023     		movgt	r3, #0
 444 0214 0123     		movle	r3, #1
 445 0216 06E0     		b	.L33
 446              	.L32:
 447              		.loc 1 140 0 discriminator 2
 448 0218 0C9B     		ldr	r3, [sp, #48]
 449 021a C3F5F073 		rsb	r3, r3, #480
 450 021e 4B45     		cmp	r3, r9
 451 0220 D4BF     		ite	le
 452 0222 0023     		movle	r3, #0
 453 0224 0123     		movgt	r3, #1
 454              	.L33:
 455              	.LVL56:
 141:.\rotate_liquid.c ****             x_bound = isLiq ? 0 : SCREEN_WIDTH;
 456              		.loc 1 141 0 is_stmt 1 discriminator 4
 457 0226 0BB1     		cbz	r3, .L62
 458              		.loc 1 141 0 is_stmt 0
 459 0228 0024     		movs	r4, #0
 460              	.LVL57:
 461 022a 16E0     		b	.L35
 462              	.LVL58:
 463              	.L62:
 464 022c 4FF4A074 		mov	r4, #320
 465              	.LVL59:
 466 0230 13E0     		b	.L35
 467              	.LVL60:
 468              	.L31:
 469              	.LBE7:
 470              	.LBB8:
 142:.\rotate_liquid.c ****         } else {
 143:.\rotate_liquid.c ****             int32_t dY2 = 2 * y - SCREEN_HEIGHT;
ARM GAS  C:\Users\ericz\AppData\Local\Temp\ccKXUKbe.s 			page 12


 471              		.loc 1 143 0 is_stmt 1
 472 0232 A9F1F004 		sub	r4, r9, #240
 473              	.LVL61:
 474 0236 6400     		lsls	r4, r4, #1
 475              	.LVL62:
 144:.\rotate_liquid.c ****             x_bound = (SCREEN_WIDTH * sinV[2] + dY2 * cosV[2]) / (2 * sinV[2]);
 476              		.loc 1 144 0
 477 0238 03EB8301 		add	r1, r3, r3, lsl #2
 478 023c 8901     		lsls	r1, r1, #6
 479 023e 109A     		ldr	r2, [sp, #64]
 480 0240 04FB0214 		mla	r4, r4, r2, r1
 481              	.LVL63:
 482 0244 5B00     		lsls	r3, r3, #1
 483 0246 94FBF3F4 		sdiv	r4, r4, r3
 484              	.LVL64:
 145:.\rotate_liquid.c ****             if (x_bound < 0) x_bound = 0;
 485              		.loc 1 145 0
 486 024a 002C     		cmp	r4, #0
 487 024c 00DA     		bge	.L36
 488 024e 0024     		movs	r4, #0
 489              	.LVL65:
 490              	.L36:
 146:.\rotate_liquid.c ****             if (x_bound > SCREEN_WIDTH) x_bound = SCREEN_WIDTH;
 491              		.loc 1 146 0
 492 0250 B4F5A07F 		cmp	r4, #320
 493 0254 01DD     		ble	.L35
 494 0256 4FF4A074 		mov	r4, #320
 495              	.LVL66:
 496              	.L35:
 497              	.LBE8:
 147:.\rotate_liquid.c ****         }
 148:.\rotate_liquid.c ****         if (liquidLeft[2]) { leftHi=0xFF; leftLo=0xFF; rightHi=0x00; rightLo=0x00; }
 498              		.loc 1 148 0
 499 025a 089B     		ldr	r3, [sp, #32]
 500 025c 23B1     		cbz	r3, .L65
 501 025e 4FF0000A 		mov	r10, #0
 502              	.LVL67:
 503 0262 4FF0FF0B 		mov	fp, #255
 504              	.LVL68:
 505 0266 03E0     		b	.L37
 506              	.LVL69:
 507              	.L65:
 149:.\rotate_liquid.c ****         else               { leftHi=0x00; leftLo=0x00; rightHi=0xFF; rightLo=0xFF; }
 508              		.loc 1 149 0
 509 0268 4FF0FF0A 		mov	r10, #255
 510              	.LVL70:
 511 026c 4FF0000B 		mov	fp, #0
 512              	.LVL71:
 513              	.L37:
 150:.\rotate_liquid.c **** 
 151:.\rotate_liquid.c ****         DMA_Wait_For_Completion(2);
 514              		.loc 1 151 0
 515 0270 0220     		movs	r0, #2
 516 0272 FFF7FEFF 		bl	DMA_Wait_For_Completion
 517              	.LVL72:
 152:.\rotate_liquid.c ****         for (i = 0; i < x_bound; i++)
 518              		.loc 1 152 0
ARM GAS  C:\Users\ericz\AppData\Local\Temp\ccKXUKbe.s 			page 13


 519 0276 0023     		movs	r3, #0
 520 0278 06E0     		b	.L38
 521              	.LVL73:
 522              	.L39:
 153:.\rotate_liquid.c ****             { fillBuf_2[i*2]=leftHi; fillBuf_2[i*2+1]=leftLo; }
 523              		.loc 1 153 0 discriminator 3
 524 027a 07F813B0 		strb	fp, [r7, r3, lsl #1]
 525 027e 07EB4302 		add	r2, r7, r3, lsl #1
 526 0282 82F801B0 		strb	fp, [r2, #1]
 152:.\rotate_liquid.c ****         for (i = 0; i < x_bound; i++)
 527              		.loc 1 152 0 discriminator 3
 528 0286 0133     		adds	r3, r3, #1
 529              	.LVL74:
 530              	.L38:
 152:.\rotate_liquid.c ****         for (i = 0; i < x_bound; i++)
 531              		.loc 1 152 0 is_stmt 0 discriminator 1
 532 0288 A342     		cmp	r3, r4
 533 028a F6DB     		blt	.L39
 534 028c 06E0     		b	.L40
 535              	.LVL75:
 536              	.L41:
 154:.\rotate_liquid.c ****         for (i = x_bound; i < SCREEN_WIDTH; i++)
 155:.\rotate_liquid.c ****             { fillBuf_2[i*2]=rightHi; fillBuf_2[i*2+1]=rightLo; }
 537              		.loc 1 155 0 is_stmt 1 discriminator 3
 538 028e 07F814A0 		strb	r10, [r7, r4, lsl #1]
 539 0292 07EB4403 		add	r3, r7, r4, lsl #1
 540 0296 83F801A0 		strb	r10, [r3, #1]
 154:.\rotate_liquid.c ****         for (i = x_bound; i < SCREEN_WIDTH; i++)
 541              		.loc 1 154 0 discriminator 3
 542 029a 0134     		adds	r4, r4, #1
 543              	.LVL76:
 544              	.L40:
 154:.\rotate_liquid.c ****         for (i = x_bound; i < SCREEN_WIDTH; i++)
 545              		.loc 1 154 0 is_stmt 0 discriminator 1
 546 029c B4F5A07F 		cmp	r4, #320
 547 02a0 F5DB     		blt	.L41
 156:.\rotate_liquid.c **** 
 157:.\rotate_liquid.c ****         DMA_Feed_SPI_Async(2, fillBuf_2, (uint16)(SCREEN_WIDTH * 2));
 548              		.loc 1 157 0 is_stmt 1
 549 02a2 0220     		movs	r0, #2
 550 02a4 3946     		mov	r1, r7
 551 02a6 4FF42072 		mov	r2, #640
 552 02aa FFF7FEFF 		bl	DMA_Feed_SPI_Async
 553              	.LVL77:
 158:.\rotate_liquid.c ****         tmp=fillBuf_2; fillBuf_2=sendBuf_2; sendBuf_2=tmp;
 159:.\rotate_liquid.c **** 
 160:.\rotate_liquid.c ****         
 161:.\rotate_liquid.c ****         // ================== Display 3 ==================
 162:.\rotate_liquid.c ****         if (sinV[3] == 0) {
 554              		.loc 1 162 0
 555 02ae 159B     		ldr	r3, [sp, #84]
 556 02b0 ABB9     		cbnz	r3, .L42
 557              	.LBB9:
 163:.\rotate_liquid.c ****             int isLiq = (cosV[3] < 0) ? (y >= fillRow[3]) : (y < (SCREEN_HEIGHT - fillRow[3]));
 558              		.loc 1 163 0
 559 02b2 119B     		ldr	r3, [sp, #68]
 560 02b4 002B     		cmp	r3, #0
ARM GAS  C:\Users\ericz\AppData\Local\Temp\ccKXUKbe.s 			page 14


 561 02b6 05DA     		bge	.L43
 562              		.loc 1 163 0 is_stmt 0 discriminator 1
 563 02b8 0D9B     		ldr	r3, [sp, #52]
 564 02ba 4B45     		cmp	r3, r9
 565 02bc CCBF     		ite	gt
 566 02be 0023     		movgt	r3, #0
 567 02c0 0123     		movle	r3, #1
 568 02c2 06E0     		b	.L44
 569              	.L43:
 570              		.loc 1 163 0 discriminator 2
 571 02c4 0D9B     		ldr	r3, [sp, #52]
 572 02c6 C3F5F073 		rsb	r3, r3, #480
 573 02ca 4B45     		cmp	r3, r9
 574 02cc D4BF     		ite	le
 575 02ce 0023     		movle	r3, #0
 576 02d0 0123     		movgt	r3, #1
 577              	.L44:
 578              	.LVL78:
 164:.\rotate_liquid.c ****             x_bound = isLiq ? 0 : SCREEN_WIDTH;
 579              		.loc 1 164 0 is_stmt 1 discriminator 4
 580 02d2 0BB1     		cbz	r3, .L66
 581              		.loc 1 164 0 is_stmt 0
 582 02d4 0024     		movs	r4, #0
 583              	.LVL79:
 584 02d6 16E0     		b	.L46
 585              	.LVL80:
 586              	.L66:
 587 02d8 4FF4A074 		mov	r4, #320
 588              	.LVL81:
 589 02dc 13E0     		b	.L46
 590              	.LVL82:
 591              	.L42:
 592              	.LBE9:
 593              	.LBB10:
 165:.\rotate_liquid.c ****         } else {
 166:.\rotate_liquid.c ****             int32_t dY2 = 2 * y - SCREEN_HEIGHT;
 594              		.loc 1 166 0 is_stmt 1
 595 02de A9F1F004 		sub	r4, r9, #240
 596              	.LVL83:
 597 02e2 6400     		lsls	r4, r4, #1
 598              	.LVL84:
 167:.\rotate_liquid.c ****             x_bound = (SCREEN_WIDTH * sinV[3] + dY2 * cosV[3]) / (2 * sinV[3]);
 599              		.loc 1 167 0
 600 02e4 03EB8301 		add	r1, r3, r3, lsl #2
 601 02e8 8901     		lsls	r1, r1, #6
 602 02ea 119A     		ldr	r2, [sp, #68]
 603 02ec 04FB0214 		mla	r4, r4, r2, r1
 604              	.LVL85:
 605 02f0 5B00     		lsls	r3, r3, #1
 606 02f2 94FBF3F4 		sdiv	r4, r4, r3
 607              	.LVL86:
 168:.\rotate_liquid.c ****             if (x_bound < 0) x_bound = 0;
 608              		.loc 1 168 0
 609 02f6 002C     		cmp	r4, #0
 610 02f8 00DA     		bge	.L47
 611 02fa 0024     		movs	r4, #0
 612              	.LVL87:
ARM GAS  C:\Users\ericz\AppData\Local\Temp\ccKXUKbe.s 			page 15


 613              	.L47:
 169:.\rotate_liquid.c ****             if (x_bound > SCREEN_WIDTH) x_bound = SCREEN_WIDTH;
 614              		.loc 1 169 0
 615 02fc B4F5A07F 		cmp	r4, #320
 616 0300 01DD     		ble	.L46
 617 0302 4FF4A074 		mov	r4, #320
 618              	.LVL88:
 619              	.L46:
 620              	.LBE10:
 170:.\rotate_liquid.c ****         }
 171:.\rotate_liquid.c ****         if (liquidLeft[3]) { leftHi=0xFF; leftLo=0xFF; rightHi=0x00; rightLo=0x00; }
 621              		.loc 1 171 0
 622 0306 099B     		ldr	r3, [sp, #36]
 623 0308 23B1     		cbz	r3, .L69
 624 030a 4FF0000A 		mov	r10, #0
 625              	.LVL89:
 626 030e 4FF0FF0B 		mov	fp, #255
 627              	.LVL90:
 628 0312 03E0     		b	.L48
 629              	.LVL91:
 630              	.L69:
 172:.\rotate_liquid.c ****         else               { leftHi=0x00; leftLo=0x00; rightHi=0xFF; rightLo=0xFF; }
 631              		.loc 1 172 0
 632 0314 4FF0FF0A 		mov	r10, #255
 633              	.LVL92:
 634 0318 4FF0000B 		mov	fp, #0
 635              	.LVL93:
 636              	.L48:
 173:.\rotate_liquid.c **** 
 174:.\rotate_liquid.c ****         DMA_Wait_For_Completion(3);
 637              		.loc 1 174 0
 638 031c 0320     		movs	r0, #3
 639 031e FFF7FEFF 		bl	DMA_Wait_For_Completion
 640              	.LVL94:
 175:.\rotate_liquid.c ****         for (i = 0; i < x_bound; i++)
 641              		.loc 1 175 0
 642 0322 0023     		movs	r3, #0
 643 0324 06E0     		b	.L49
 644              	.LVL95:
 645              	.L50:
 176:.\rotate_liquid.c ****             { fillBuf_3[i*2]=leftHi; fillBuf_3[i*2+1]=leftLo; }
 646              		.loc 1 176 0 discriminator 3
 647 0326 08F813B0 		strb	fp, [r8, r3, lsl #1]
 648 032a 08EB4302 		add	r2, r8, r3, lsl #1
 649 032e 82F801B0 		strb	fp, [r2, #1]
 175:.\rotate_liquid.c ****         for (i = 0; i < x_bound; i++)
 650              		.loc 1 175 0 discriminator 3
 651 0332 0133     		adds	r3, r3, #1
 652              	.LVL96:
 653              	.L49:
 175:.\rotate_liquid.c ****         for (i = 0; i < x_bound; i++)
 654              		.loc 1 175 0 is_stmt 0 discriminator 1
 655 0334 A342     		cmp	r3, r4
 656 0336 F6DB     		blt	.L50
 657 0338 17E0     		b	.L51
 658              	.L72:
 659 033a 00BF     		.align	2
ARM GAS  C:\Users\ericz\AppData\Local\Temp\ccKXUKbe.s 			page 16


 660              	.L71:
 661 033c 00000000 		.word	bufferB_3
 662 0340 00000000 		.word	bufferB_2
 663 0344 00000000 		.word	bufferA_2
 664 0348 00000000 		.word	bufferB_1
 665 034c 00000000 		.word	bufferA_1
 666 0350 00000000 		.word	bufferB_0
 667 0354 00000000 		.word	bufferA_0
 668 0358 00000000 		.word	bufferA_3
 669              	.LVL97:
 670              	.L52:
 177:.\rotate_liquid.c ****         for (i = x_bound; i < SCREEN_WIDTH; i++)
 178:.\rotate_liquid.c ****             { fillBuf_3[i*2]=rightHi; fillBuf_3[i*2+1]=rightLo; }
 671              		.loc 1 178 0 is_stmt 1 discriminator 3
 672 035c 08F814A0 		strb	r10, [r8, r4, lsl #1]
 673 0360 08EB4403 		add	r3, r8, r4, lsl #1
 674 0364 83F801A0 		strb	r10, [r3, #1]
 177:.\rotate_liquid.c ****         for (i = x_bound; i < SCREEN_WIDTH; i++)
 675              		.loc 1 177 0 discriminator 3
 676 0368 0134     		adds	r4, r4, #1
 677              	.LVL98:
 678              	.L51:
 177:.\rotate_liquid.c ****         for (i = x_bound; i < SCREEN_WIDTH; i++)
 679              		.loc 1 177 0 is_stmt 0 discriminator 1
 680 036a B4F5A07F 		cmp	r4, #320
 681 036e F5DB     		blt	.L52
 179:.\rotate_liquid.c **** 
 180:.\rotate_liquid.c ****         DMA_Feed_SPI_Async(3, fillBuf_3, (uint16)(SCREEN_WIDTH * 2));
 682              		.loc 1 180 0 is_stmt 1 discriminator 2
 683 0370 0320     		movs	r0, #3
 684 0372 4146     		mov	r1, r8
 685 0374 4FF42072 		mov	r2, #640
 686 0378 FFF7FEFF 		bl	DMA_Feed_SPI_Async
 687              	.LVL99:
 688              	.LBE2:
  87:.\rotate_liquid.c **** 
 689              		.loc 1 87 0 discriminator 2
 690 037c 09F10109 		add	r9, r9, #1
 691              	.LVL100:
 692              	.LBB11:
 181:.\rotate_liquid.c ****         tmp=fillBuf_3; fillBuf_3=sendBuf_3; sendBuf_3=tmp;
 693              		.loc 1 181 0 discriminator 2
 694 0380 4346     		mov	r3, r8
 695 0382 DDF81480 		ldr	r8, [sp, #20]
 696              	.LVL101:
 697 0386 0593     		str	r3, [sp, #20]
 698              	.LVL102:
 699 0388 3B46     		mov	r3, r7
 700              	.LVL103:
 158:.\rotate_liquid.c **** 
 701              		.loc 1 158 0 discriminator 2
 702 038a 049F     		ldr	r7, [sp, #16]
 703              	.LVL104:
 704 038c 0493     		str	r3, [sp, #16]
 705              	.LVL105:
 706              		.loc 1 181 0 discriminator 2
 707 038e 3346     		mov	r3, r6
ARM GAS  C:\Users\ericz\AppData\Local\Temp\ccKXUKbe.s 			page 17


 708              	.LVL106:
 135:.\rotate_liquid.c **** 
 709              		.loc 1 135 0 discriminator 2
 710 0390 039E     		ldr	r6, [sp, #12]
 711              	.LVL107:
 712 0392 0393     		str	r3, [sp, #12]
 713              	.LVL108:
 714              		.loc 1 181 0 discriminator 2
 715 0394 2B46     		mov	r3, r5
 716              	.LVL109:
 112:.\rotate_liquid.c **** 
 717              		.loc 1 112 0 discriminator 2
 718 0396 029D     		ldr	r5, [sp, #8]
 719              	.LVL110:
 720 0398 0293     		str	r3, [sp, #8]
 721              	.LVL111:
 722              	.L8:
 723              	.LBE11:
  87:.\rotate_liquid.c **** 
 724              		.loc 1 87 0 discriminator 1
 725 039a B9F5F07F 		cmp	r9, #480
 726 039e FFF684AE 		blt	.L53
 182:.\rotate_liquid.c ****            
 183:.\rotate_liquid.c ****     }
 184:.\rotate_liquid.c **** 
 185:.\rotate_liquid.c ****     // wait for all DMAs to finish before returning
 186:.\rotate_liquid.c ****     DMA_Wait_For_Completion(0);
 727              		.loc 1 186 0
 728 03a2 0020     		movs	r0, #0
 729 03a4 FFF7FEFF 		bl	DMA_Wait_For_Completion
 730              	.LVL112:
 187:.\rotate_liquid.c ****     DMA_Wait_For_Completion(1);
 731              		.loc 1 187 0
 732 03a8 0120     		movs	r0, #1
 733 03aa FFF7FEFF 		bl	DMA_Wait_For_Completion
 734              	.LVL113:
 188:.\rotate_liquid.c ****     DMA_Wait_For_Completion(2);
 735              		.loc 1 188 0
 736 03ae 0220     		movs	r0, #2
 737 03b0 FFF7FEFF 		bl	DMA_Wait_For_Completion
 738              	.LVL114:
 189:.\rotate_liquid.c ****     DMA_Wait_For_Completion(3);
 739              		.loc 1 189 0
 740 03b4 0320     		movs	r0, #3
 741 03b6 FFF7FEFF 		bl	DMA_Wait_For_Completion
 742              	.LVL115:
 190:.\rotate_liquid.c **** }...
 743              		.loc 1 190 0
 744 03ba 17B0     		add	sp, sp, #92
 745              		.cfi_def_cfa_offset 36
 746              		@ sp needed
 747 03bc BDE8F08F 		pop	{r4, r5, r6, r7, r8, r9, r10, fp, pc}
 748              		.cfi_endproc
 749              	.LFE65:
 750              		.size	drawLiquid, .-drawLiquid
 751              		.global	atan_lut
 752              		.section	.rodata
ARM GAS  C:\Users\ericz\AppData\Local\Temp\ccKXUKbe.s 			page 18


 753              		.align	2
 754              		.set	.LANCHOR0,. + 0
 755              		.type	atan_lut, %object
 756              		.size	atan_lut, 512
 757              	atan_lut:
 758 0000 4301     		.short	323
 759 0002 4301     		.short	323
 760 0004 4401     		.short	324
 761 0006 4401     		.short	324
 762 0008 4401     		.short	324
 763 000a 4401     		.short	324
 764 000c 4401     		.short	324
 765 000e 4501     		.short	325
 766 0010 4501     		.short	325
 767 0012 4501     		.short	325
 768 0014 4501     		.short	325
 769 0016 4601     		.short	326
 770 0018 4601     		.short	326
 771 001a 4601     		.short	326
 772 001c 4601     		.short	326
 773 001e 4601     		.short	326
 774 0020 4701     		.short	327
 775 0022 4701     		.short	327
 776 0024 4701     		.short	327
 777 0026 4701     		.short	327
 778 0028 4801     		.short	328
 779 002a 4801     		.short	328
 780 002c 4801     		.short	328
 781 002e 4801     		.short	328
 782 0030 4901     		.short	329
 783 0032 4901     		.short	329
 784 0034 4901     		.short	329
 785 0036 4901     		.short	329
 786 0038 4A01     		.short	330
 787 003a 4A01     		.short	330
 788 003c 4A01     		.short	330
 789 003e 4A01     		.short	330
 790 0040 4B01     		.short	331
 791 0042 4B01     		.short	331
 792 0044 4B01     		.short	331
 793 0046 4B01     		.short	331
 794 0048 4C01     		.short	332
 795 004a 4C01     		.short	332
 796 004c 4C01     		.short	332
 797 004e 4C01     		.short	332
 798 0050 4D01     		.short	333
 799 0052 4D01     		.short	333
 800 0054 4D01     		.short	333
 801 0056 4E01     		.short	334
 802 0058 4E01     		.short	334
 803 005a 4E01     		.short	334
 804 005c 4E01     		.short	334
 805 005e 4F01     		.short	335
 806 0060 4F01     		.short	335
 807 0062 4F01     		.short	335
 808 0064 4F01     		.short	335
 809 0066 5001     		.short	336
ARM GAS  C:\Users\ericz\AppData\Local\Temp\ccKXUKbe.s 			page 19


 810 0068 5001     		.short	336
 811 006a 5001     		.short	336
 812 006c 5101     		.short	337
 813 006e 5101     		.short	337
 814 0070 5101     		.short	337
 815 0072 5101     		.short	337
 816 0074 5201     		.short	338
 817 0076 5201     		.short	338
 818 0078 5201     		.short	338
 819 007a 5301     		.short	339
 820 007c 5301     		.short	339
 821 007e 5301     		.short	339
 822 0080 5301     		.short	339
 823 0082 5401     		.short	340
 824 0084 5401     		.short	340
 825 0086 5401     		.short	340
 826 0088 5501     		.short	341
 827 008a 5501     		.short	341
 828 008c 5501     		.short	341
 829 008e 5601     		.short	342
 830 0090 5601     		.short	342
 831 0092 5601     		.short	342
 832 0094 5601     		.short	342
 833 0096 5701     		.short	343
 834 0098 5701     		.short	343
 835 009a 5701     		.short	343
 836 009c 5801     		.short	344
 837 009e 5801     		.short	344
 838 00a0 5801     		.short	344
 839 00a2 5901     		.short	345
 840 00a4 5901     		.short	345
 841 00a6 5901     		.short	345
 842 00a8 5A01     		.short	346
 843 00aa 5A01     		.short	346
 844 00ac 5A01     		.short	346
 845 00ae 5A01     		.short	346
 846 00b0 5B01     		.short	347
 847 00b2 5B01     		.short	347
 848 00b4 5B01     		.short	347
 849 00b6 5C01     		.short	348
 850 00b8 5C01     		.short	348
 851 00ba 5C01     		.short	348
 852 00bc 5D01     		.short	349
 853 00be 5D01     		.short	349
 854 00c0 5D01     		.short	349
 855 00c2 5E01     		.short	350
 856 00c4 5E01     		.short	350
 857 00c6 5E01     		.short	350
 858 00c8 5F01     		.short	351
 859 00ca 5F01     		.short	351
 860 00cc 5F01     		.short	351
 861 00ce 6001     		.short	352
 862 00d0 6001     		.short	352
 863 00d2 6001     		.short	352
 864 00d4 6101     		.short	353
 865 00d6 6101     		.short	353
 866 00d8 6101     		.short	353
ARM GAS  C:\Users\ericz\AppData\Local\Temp\ccKXUKbe.s 			page 20


 867 00da 6201     		.short	354
 868 00dc 6201     		.short	354
 869 00de 6201     		.short	354
 870 00e0 6301     		.short	355
 871 00e2 6301     		.short	355
 872 00e4 6301     		.short	355
 873 00e6 6401     		.short	356
 874 00e8 6401     		.short	356
 875 00ea 6401     		.short	356
 876 00ec 6501     		.short	357
 877 00ee 6501     		.short	357
 878 00f0 6501     		.short	357
 879 00f2 6601     		.short	358
 880 00f4 6601     		.short	358
 881 00f6 6601     		.short	358
 882 00f8 6701     		.short	359
 883 00fa 6701     		.short	359
 884 00fc 6701     		.short	359
 885 00fe 0000     		.short	0
 886 0100 0000     		.short	0
 887 0102 0000     		.short	0
 888 0104 0100     		.short	1
 889 0106 0100     		.short	1
 890 0108 0100     		.short	1
 891 010a 0200     		.short	2
 892 010c 0200     		.short	2
 893 010e 0200     		.short	2
 894 0110 0300     		.short	3
 895 0112 0300     		.short	3
 896 0114 0300     		.short	3
 897 0116 0400     		.short	4
 898 0118 0400     		.short	4
 899 011a 0400     		.short	4
 900 011c 0500     		.short	5
 901 011e 0500     		.short	5
 902 0120 0500     		.short	5
 903 0122 0600     		.short	6
 904 0124 0600     		.short	6
 905 0126 0600     		.short	6
 906 0128 0700     		.short	7
 907 012a 0700     		.short	7
 908 012c 0700     		.short	7
 909 012e 0800     		.short	8
 910 0130 0800     		.short	8
 911 0132 0800     		.short	8
 912 0134 0900     		.short	9
 913 0136 0900     		.short	9
 914 0138 0900     		.short	9
 915 013a 0A00     		.short	10
 916 013c 0A00     		.short	10
 917 013e 0A00     		.short	10
 918 0140 0B00     		.short	11
 919 0142 0B00     		.short	11
 920 0144 0B00     		.short	11
 921 0146 0C00     		.short	12
 922 0148 0C00     		.short	12
 923 014a 0C00     		.short	12
ARM GAS  C:\Users\ericz\AppData\Local\Temp\ccKXUKbe.s 			page 21


 924 014c 0D00     		.short	13
 925 014e 0D00     		.short	13
 926 0150 0D00     		.short	13
 927 0152 0E00     		.short	14
 928 0154 0E00     		.short	14
 929 0156 0E00     		.short	14
 930 0158 0E00     		.short	14
 931 015a 0F00     		.short	15
 932 015c 0F00     		.short	15
 933 015e 0F00     		.short	15
 934 0160 1000     		.short	16
 935 0162 1000     		.short	16
 936 0164 1000     		.short	16
 937 0166 1100     		.short	17
 938 0168 1100     		.short	17
 939 016a 1100     		.short	17
 940 016c 1200     		.short	18
 941 016e 1200     		.short	18
 942 0170 1200     		.short	18
 943 0172 1200     		.short	18
 944 0174 1300     		.short	19
 945 0176 1300     		.short	19
 946 0178 1300     		.short	19
 947 017a 1400     		.short	20
 948 017c 1400     		.short	20
 949 017e 1400     		.short	20
 950 0180 1500     		.short	21
 951 0182 1500     		.short	21
 952 0184 1500     		.short	21
 953 0186 1500     		.short	21
 954 0188 1600     		.short	22
 955 018a 1600     		.short	22
 956 018c 1600     		.short	22
 957 018e 1700     		.short	23
 958 0190 1700     		.short	23
 959 0192 1700     		.short	23
 960 0194 1700     		.short	23
 961 0196 1800     		.short	24
 962 0198 1800     		.short	24
 963 019a 1800     		.short	24
 964 019c 1900     		.short	25
 965 019e 1900     		.short	25
 966 01a0 1900     		.short	25
 967 01a2 1900     		.short	25
 968 01a4 1A00     		.short	26
 969 01a6 1A00     		.short	26
 970 01a8 1A00     		.short	26
 971 01aa 1A00     		.short	26
 972 01ac 1B00     		.short	27
 973 01ae 1B00     		.short	27
 974 01b0 1B00     		.short	27
 975 01b2 1C00     		.short	28
 976 01b4 1C00     		.short	28
 977 01b6 1C00     		.short	28
 978 01b8 1C00     		.short	28
 979 01ba 1D00     		.short	29
 980 01bc 1D00     		.short	29
ARM GAS  C:\Users\ericz\AppData\Local\Temp\ccKXUKbe.s 			page 22


 981 01be 1D00     		.short	29
 982 01c0 1D00     		.short	29
 983 01c2 1E00     		.short	30
 984 01c4 1E00     		.short	30
 985 01c6 1E00     		.short	30
 986 01c8 1E00     		.short	30
 987 01ca 1F00     		.short	31
 988 01cc 1F00     		.short	31
 989 01ce 1F00     		.short	31
 990 01d0 1F00     		.short	31
 991 01d2 2000     		.short	32
 992 01d4 2000     		.short	32
 993 01d6 2000     		.short	32
 994 01d8 2000     		.short	32
 995 01da 2100     		.short	33
 996 01dc 2100     		.short	33
 997 01de 2100     		.short	33
 998 01e0 2100     		.short	33
 999 01e2 2200     		.short	34
 1000 01e4 2200     		.short	34
 1001 01e6 2200     		.short	34
 1002 01e8 2200     		.short	34
 1003 01ea 2200     		.short	34
 1004 01ec 2300     		.short	35
 1005 01ee 2300     		.short	35
 1006 01f0 2300     		.short	35
 1007 01f2 2300     		.short	35
 1008 01f4 2400     		.short	36
 1009 01f6 2400     		.short	36
 1010 01f8 2400     		.short	36
 1011 01fa 2400     		.short	36
 1012 01fc 2400     		.short	36
 1013 01fe 2500     		.short	37
 1014              		.text
 1015              	.Letext0:
 1016              		.file 2 "c:\\program files (x86)\\cypress\\psoc creator\\3.3\\psoc creator\\import\\gnu\\arm\\4.9.
 1017              		.file 3 "c:\\program files (x86)\\cypress\\psoc creator\\3.3\\psoc creator\\import\\gnu\\arm\\4.9.
 1018              		.file 4 "Generated_Source\\PSoC5/cytypes.h"
 1019              		.file 5 "Generated_Source\\PSoC5/core_cm3.h"
 1020              		.file 6 ".\\dma_util.h"
 1021              		.file 7 ".\\trig.h"
 1022              		.file 8 ".\\tft.h"
 1023              		.file 9 "Generated_Source\\PSoC5/DC0.h"
 1024              		.file 10 "Generated_Source\\PSoC5/DC1.h"
 1025              		.file 11 "Generated_Source\\PSoC5/DC2.h"
 1026              		.file 12 "Generated_Source\\PSoC5/DC3.h"