ARM GAS  C:\Users\ericz\AppData\Local\Temp\ccgTCGw3.s 			page 1


   1              		.syntax unified
   2              		.cpu cortex-m3
   3              		.fpu softvfp
   4              		.eabi_attribute 20, 1
   5              		.eabi_attribute 21, 1
   6              		.eabi_attribute 23, 3
   7              		.eabi_attribute 24, 1
   8              		.eabi_attribute 25, 1
   9              		.eabi_attribute 26, 1
  10              		.eabi_attribute 30, 1
  11              		.eabi_attribute 34, 1
  12              		.eabi_attribute 18, 4
  13              		.thumb
  14              		.file	"SPIM_2.c"
  15              		.text
  16              	.Ltext0:
  17              		.cfi_sections	.debug_frame
  18              		.section	.text.SPIM_2_Enable,"ax",%progbits
  19              		.align	2
  20              		.global	SPIM_2_Enable
  21              		.thumb
  22              		.thumb_func
  23              		.type	SPIM_2_Enable, %function
  24              	SPIM_2_Enable:
  25              	.LFB1:
  26              		.file 1 ".\\Generated_Source\\PSoC5\\SPIM_2.c"
   1:.\Generated_Source\PSoC5/SPIM_2.c **** /*******************************************************************************
   2:.\Generated_Source\PSoC5/SPIM_2.c **** * File Name: SPIM_2.c
   3:.\Generated_Source\PSoC5/SPIM_2.c **** * Version 2.50
   4:.\Generated_Source\PSoC5/SPIM_2.c **** *
   5:.\Generated_Source\PSoC5/SPIM_2.c **** * Description:
   6:.\Generated_Source\PSoC5/SPIM_2.c **** *  This file provides all API functionality of the SPI Master component.
   7:.\Generated_Source\PSoC5/SPIM_2.c **** *
   8:.\Generated_Source\PSoC5/SPIM_2.c **** * Note:
   9:.\Generated_Source\PSoC5/SPIM_2.c **** *  None.
  10:.\Generated_Source\PSoC5/SPIM_2.c **** *
  11:.\Generated_Source\PSoC5/SPIM_2.c **** ********************************************************************************
  12:.\Generated_Source\PSoC5/SPIM_2.c **** * Copyright 2008-2015, Cypress Semiconductor Corporation.  All rights reserved.
  13:.\Generated_Source\PSoC5/SPIM_2.c **** * You may use this file only in accordance with the license, terms, conditions,
  14:.\Generated_Source\PSoC5/SPIM_2.c **** * disclaimers, and limitations in the end user license agreement accompanying
  15:.\Generated_Source\PSoC5/SPIM_2.c **** * the software package with which this file was provided.
  16:.\Generated_Source\PSoC5/SPIM_2.c **** *******************************************************************************/
  17:.\Generated_Source\PSoC5/SPIM_2.c **** 
  18:.\Generated_Source\PSoC5/SPIM_2.c **** #include "SPIM_2_PVT.h"
  19:.\Generated_Source\PSoC5/SPIM_2.c **** 
  20:.\Generated_Source\PSoC5/SPIM_2.c **** #if(SPIM_2_TX_SOFTWARE_BUF_ENABLED)
  21:.\Generated_Source\PSoC5/SPIM_2.c ****     volatile uint8 SPIM_2_txBuffer[SPIM_2_TX_BUFFER_SIZE];
  22:.\Generated_Source\PSoC5/SPIM_2.c ****     volatile uint8 SPIM_2_txBufferFull;
  23:.\Generated_Source\PSoC5/SPIM_2.c ****     volatile uint8 SPIM_2_txBufferRead;
  24:.\Generated_Source\PSoC5/SPIM_2.c ****     volatile uint8 SPIM_2_txBufferWrite;
  25:.\Generated_Source\PSoC5/SPIM_2.c **** #endif /* (SPIM_2_TX_SOFTWARE_BUF_ENABLED) */
  26:.\Generated_Source\PSoC5/SPIM_2.c **** 
  27:.\Generated_Source\PSoC5/SPIM_2.c **** #if(SPIM_2_RX_SOFTWARE_BUF_ENABLED)
  28:.\Generated_Source\PSoC5/SPIM_2.c ****     volatile uint8 SPIM_2_rxBuffer[SPIM_2_RX_BUFFER_SIZE];
  29:.\Generated_Source\PSoC5/SPIM_2.c ****     volatile uint8 SPIM_2_rxBufferFull;
  30:.\Generated_Source\PSoC5/SPIM_2.c ****     volatile uint8 SPIM_2_rxBufferRead;
  31:.\Generated_Source\PSoC5/SPIM_2.c ****     volatile uint8 SPIM_2_rxBufferWrite;
ARM GAS  C:\Users\ericz\AppData\Local\Temp\ccgTCGw3.s 			page 2


  32:.\Generated_Source\PSoC5/SPIM_2.c **** #endif /* (SPIM_2_RX_SOFTWARE_BUF_ENABLED) */
  33:.\Generated_Source\PSoC5/SPIM_2.c **** 
  34:.\Generated_Source\PSoC5/SPIM_2.c **** uint8 SPIM_2_initVar = 0u;
  35:.\Generated_Source\PSoC5/SPIM_2.c **** 
  36:.\Generated_Source\PSoC5/SPIM_2.c **** volatile uint8 SPIM_2_swStatusTx;
  37:.\Generated_Source\PSoC5/SPIM_2.c **** volatile uint8 SPIM_2_swStatusRx;
  38:.\Generated_Source\PSoC5/SPIM_2.c **** 
  39:.\Generated_Source\PSoC5/SPIM_2.c **** 
  40:.\Generated_Source\PSoC5/SPIM_2.c **** /*******************************************************************************
  41:.\Generated_Source\PSoC5/SPIM_2.c **** * Function Name: SPIM_2_Init
  42:.\Generated_Source\PSoC5/SPIM_2.c **** ********************************************************************************
  43:.\Generated_Source\PSoC5/SPIM_2.c **** *
  44:.\Generated_Source\PSoC5/SPIM_2.c **** * Summary:
  45:.\Generated_Source\PSoC5/SPIM_2.c **** *  Inits/Restores default SPIM configuration provided with customizer.
  46:.\Generated_Source\PSoC5/SPIM_2.c **** *
  47:.\Generated_Source\PSoC5/SPIM_2.c **** * Parameters:
  48:.\Generated_Source\PSoC5/SPIM_2.c **** *  None.
  49:.\Generated_Source\PSoC5/SPIM_2.c **** *
  50:.\Generated_Source\PSoC5/SPIM_2.c **** * Return:
  51:.\Generated_Source\PSoC5/SPIM_2.c **** *  None.
  52:.\Generated_Source\PSoC5/SPIM_2.c **** *
  53:.\Generated_Source\PSoC5/SPIM_2.c **** * Side Effects:
  54:.\Generated_Source\PSoC5/SPIM_2.c **** *  When this function is called it initializes all of the necessary parameters
  55:.\Generated_Source\PSoC5/SPIM_2.c **** *  for execution. i.e. setting the initial interrupt mask, configuring the
  56:.\Generated_Source\PSoC5/SPIM_2.c **** *  interrupt service routine, configuring the bit-counter parameters and
  57:.\Generated_Source\PSoC5/SPIM_2.c **** *  clearing the FIFO and Status Register.
  58:.\Generated_Source\PSoC5/SPIM_2.c **** *
  59:.\Generated_Source\PSoC5/SPIM_2.c **** * Reentrant:
  60:.\Generated_Source\PSoC5/SPIM_2.c **** *  No.
  61:.\Generated_Source\PSoC5/SPIM_2.c **** *
  62:.\Generated_Source\PSoC5/SPIM_2.c **** *******************************************************************************/
  63:.\Generated_Source\PSoC5/SPIM_2.c **** void SPIM_2_Init(void) 
  64:.\Generated_Source\PSoC5/SPIM_2.c **** {
  65:.\Generated_Source\PSoC5/SPIM_2.c ****     /* Initialize the Bit counter */
  66:.\Generated_Source\PSoC5/SPIM_2.c ****     SPIM_2_COUNTER_PERIOD_REG = SPIM_2_BITCTR_INIT;
  67:.\Generated_Source\PSoC5/SPIM_2.c **** 
  68:.\Generated_Source\PSoC5/SPIM_2.c ****     /* Init TX ISR  */
  69:.\Generated_Source\PSoC5/SPIM_2.c ****     #if(0u != SPIM_2_INTERNAL_TX_INT_ENABLED)
  70:.\Generated_Source\PSoC5/SPIM_2.c ****         CyIntDisable         (SPIM_2_TX_ISR_NUMBER);
  71:.\Generated_Source\PSoC5/SPIM_2.c ****         CyIntSetPriority     (SPIM_2_TX_ISR_NUMBER,  SPIM_2_TX_ISR_PRIORITY);
  72:.\Generated_Source\PSoC5/SPIM_2.c ****         (void) CyIntSetVector(SPIM_2_TX_ISR_NUMBER, &SPIM_2_TX_ISR);
  73:.\Generated_Source\PSoC5/SPIM_2.c ****     #endif /* (0u != SPIM_2_INTERNAL_TX_INT_ENABLED) */
  74:.\Generated_Source\PSoC5/SPIM_2.c **** 
  75:.\Generated_Source\PSoC5/SPIM_2.c ****     /* Init RX ISR  */
  76:.\Generated_Source\PSoC5/SPIM_2.c ****     #if(0u != SPIM_2_INTERNAL_RX_INT_ENABLED)
  77:.\Generated_Source\PSoC5/SPIM_2.c ****         CyIntDisable         (SPIM_2_RX_ISR_NUMBER);
  78:.\Generated_Source\PSoC5/SPIM_2.c ****         CyIntSetPriority     (SPIM_2_RX_ISR_NUMBER,  SPIM_2_RX_ISR_PRIORITY);
  79:.\Generated_Source\PSoC5/SPIM_2.c ****         (void) CyIntSetVector(SPIM_2_RX_ISR_NUMBER, &SPIM_2_RX_ISR);
  80:.\Generated_Source\PSoC5/SPIM_2.c ****     #endif /* (0u != SPIM_2_INTERNAL_RX_INT_ENABLED) */
  81:.\Generated_Source\PSoC5/SPIM_2.c **** 
  82:.\Generated_Source\PSoC5/SPIM_2.c ****     /* Clear any stray data from the RX and TX FIFO */
  83:.\Generated_Source\PSoC5/SPIM_2.c ****     SPIM_2_ClearFIFO();
  84:.\Generated_Source\PSoC5/SPIM_2.c **** 
  85:.\Generated_Source\PSoC5/SPIM_2.c ****     #if(SPIM_2_RX_SOFTWARE_BUF_ENABLED)
  86:.\Generated_Source\PSoC5/SPIM_2.c ****         SPIM_2_rxBufferFull  = 0u;
  87:.\Generated_Source\PSoC5/SPIM_2.c ****         SPIM_2_rxBufferRead  = 0u;
  88:.\Generated_Source\PSoC5/SPIM_2.c ****         SPIM_2_rxBufferWrite = 0u;
ARM GAS  C:\Users\ericz\AppData\Local\Temp\ccgTCGw3.s 			page 3


  89:.\Generated_Source\PSoC5/SPIM_2.c ****     #endif /* (SPIM_2_RX_SOFTWARE_BUF_ENABLED) */
  90:.\Generated_Source\PSoC5/SPIM_2.c **** 
  91:.\Generated_Source\PSoC5/SPIM_2.c ****     #if(SPIM_2_TX_SOFTWARE_BUF_ENABLED)
  92:.\Generated_Source\PSoC5/SPIM_2.c ****         SPIM_2_txBufferFull  = 0u;
  93:.\Generated_Source\PSoC5/SPIM_2.c ****         SPIM_2_txBufferRead  = 0u;
  94:.\Generated_Source\PSoC5/SPIM_2.c ****         SPIM_2_txBufferWrite = 0u;
  95:.\Generated_Source\PSoC5/SPIM_2.c ****     #endif /* (SPIM_2_TX_SOFTWARE_BUF_ENABLED) */
  96:.\Generated_Source\PSoC5/SPIM_2.c **** 
  97:.\Generated_Source\PSoC5/SPIM_2.c ****     (void) SPIM_2_ReadTxStatus(); /* Clear Tx status and swStatusTx */
  98:.\Generated_Source\PSoC5/SPIM_2.c ****     (void) SPIM_2_ReadRxStatus(); /* Clear Rx status and swStatusRx */
  99:.\Generated_Source\PSoC5/SPIM_2.c **** 
 100:.\Generated_Source\PSoC5/SPIM_2.c ****     /* Configure TX and RX interrupt mask */
 101:.\Generated_Source\PSoC5/SPIM_2.c ****     SPIM_2_TX_STATUS_MASK_REG = SPIM_2_TX_INIT_INTERRUPTS_MASK;
 102:.\Generated_Source\PSoC5/SPIM_2.c ****     SPIM_2_RX_STATUS_MASK_REG = SPIM_2_RX_INIT_INTERRUPTS_MASK;
 103:.\Generated_Source\PSoC5/SPIM_2.c **** }
 104:.\Generated_Source\PSoC5/SPIM_2.c **** 
 105:.\Generated_Source\PSoC5/SPIM_2.c **** 
 106:.\Generated_Source\PSoC5/SPIM_2.c **** /*******************************************************************************
 107:.\Generated_Source\PSoC5/SPIM_2.c **** * Function Name: SPIM_2_Enable
 108:.\Generated_Source\PSoC5/SPIM_2.c **** ********************************************************************************
 109:.\Generated_Source\PSoC5/SPIM_2.c **** *
 110:.\Generated_Source\PSoC5/SPIM_2.c **** * Summary:
 111:.\Generated_Source\PSoC5/SPIM_2.c **** *  Enable SPIM component.
 112:.\Generated_Source\PSoC5/SPIM_2.c **** *
 113:.\Generated_Source\PSoC5/SPIM_2.c **** * Parameters:
 114:.\Generated_Source\PSoC5/SPIM_2.c **** *  None.
 115:.\Generated_Source\PSoC5/SPIM_2.c **** *
 116:.\Generated_Source\PSoC5/SPIM_2.c **** * Return:
 117:.\Generated_Source\PSoC5/SPIM_2.c **** *  None.
 118:.\Generated_Source\PSoC5/SPIM_2.c **** *
 119:.\Generated_Source\PSoC5/SPIM_2.c **** *******************************************************************************/
 120:.\Generated_Source\PSoC5/SPIM_2.c **** void SPIM_2_Enable(void) 
 121:.\Generated_Source\PSoC5/SPIM_2.c **** {
  27              		.loc 1 121 0
  28              		.cfi_startproc
  29              		@ args = 0, pretend = 0, frame = 0
  30              		@ frame_needed = 0, uses_anonymous_args = 0
  31 0000 08B5     		push	{r3, lr}
  32              		.cfi_def_cfa_offset 8
  33              		.cfi_offset 3, -8
  34              		.cfi_offset 14, -4
 122:.\Generated_Source\PSoC5/SPIM_2.c ****     uint8 enableInterrupts;
 123:.\Generated_Source\PSoC5/SPIM_2.c **** 
 124:.\Generated_Source\PSoC5/SPIM_2.c ****     enableInterrupts = CyEnterCriticalSection();
  35              		.loc 1 124 0
  36 0002 FFF7FEFF 		bl	CyEnterCriticalSection
  37              	.LVL0:
 125:.\Generated_Source\PSoC5/SPIM_2.c ****     SPIM_2_COUNTER_CONTROL_REG |= SPIM_2_CNTR_ENABLE;
  38              		.loc 1 125 0
  39 0006 0B4A     		ldr	r2, .L3
  40 0008 1378     		ldrb	r3, [r2]	@ zero_extendqisi2
  41 000a 43F02003 		orr	r3, r3, #32
  42 000e 1370     		strb	r3, [r2]
 126:.\Generated_Source\PSoC5/SPIM_2.c ****     SPIM_2_TX_STATUS_ACTL_REG  |= SPIM_2_INT_ENABLE;
  43              		.loc 1 126 0
  44 0010 A2F20112 		subw	r2, r2, #257
  45 0014 1378     		ldrb	r3, [r2]	@ zero_extendqisi2
ARM GAS  C:\Users\ericz\AppData\Local\Temp\ccgTCGw3.s 			page 4


  46 0016 43F01003 		orr	r3, r3, #16
  47 001a 1370     		strb	r3, [r2]
 127:.\Generated_Source\PSoC5/SPIM_2.c ****     SPIM_2_RX_STATUS_ACTL_REG  |= SPIM_2_INT_ENABLE;
  48              		.loc 1 127 0
  49 001c 02F58172 		add	r2, r2, #258
  50 0020 1378     		ldrb	r3, [r2]	@ zero_extendqisi2
  51 0022 43F01003 		orr	r3, r3, #16
  52 0026 1370     		strb	r3, [r2]
 128:.\Generated_Source\PSoC5/SPIM_2.c ****     CyExitCriticalSection(enableInterrupts);
  53              		.loc 1 128 0
  54 0028 FFF7FEFF 		bl	CyExitCriticalSection
  55              	.LVL1:
 129:.\Generated_Source\PSoC5/SPIM_2.c **** 
 130:.\Generated_Source\PSoC5/SPIM_2.c ****     #if(0u != SPIM_2_INTERNAL_CLOCK)
 131:.\Generated_Source\PSoC5/SPIM_2.c ****         SPIM_2_IntClock_Enable();
  56              		.loc 1 131 0
  57 002c FFF7FEFF 		bl	SPIM_2_IntClock_Start
  58              	.LVL2:
  59 0030 08BD     		pop	{r3, pc}
  60              	.L4:
  61 0032 00BF     		.align	2
  62              	.L3:
  63 0034 99650040 		.word	1073767833
  64              		.cfi_endproc
  65              	.LFE1:
  66              		.size	SPIM_2_Enable, .-SPIM_2_Enable
  67              		.section	.text.SPIM_2_Stop,"ax",%progbits
  68              		.align	2
  69              		.global	SPIM_2_Stop
  70              		.thumb
  71              		.thumb_func
  72              		.type	SPIM_2_Stop, %function
  73              	SPIM_2_Stop:
  74              	.LFB3:
 132:.\Generated_Source\PSoC5/SPIM_2.c ****     #endif /* (0u != SPIM_2_INTERNAL_CLOCK) */
 133:.\Generated_Source\PSoC5/SPIM_2.c **** 
 134:.\Generated_Source\PSoC5/SPIM_2.c ****     SPIM_2_EnableTxInt();
 135:.\Generated_Source\PSoC5/SPIM_2.c ****     SPIM_2_EnableRxInt();
 136:.\Generated_Source\PSoC5/SPIM_2.c **** }
 137:.\Generated_Source\PSoC5/SPIM_2.c **** 
 138:.\Generated_Source\PSoC5/SPIM_2.c **** 
 139:.\Generated_Source\PSoC5/SPIM_2.c **** /*******************************************************************************
 140:.\Generated_Source\PSoC5/SPIM_2.c **** * Function Name: SPIM_2_Start
 141:.\Generated_Source\PSoC5/SPIM_2.c **** ********************************************************************************
 142:.\Generated_Source\PSoC5/SPIM_2.c **** *
 143:.\Generated_Source\PSoC5/SPIM_2.c **** * Summary:
 144:.\Generated_Source\PSoC5/SPIM_2.c **** *  Initialize and Enable the SPI Master component.
 145:.\Generated_Source\PSoC5/SPIM_2.c **** *
 146:.\Generated_Source\PSoC5/SPIM_2.c **** * Parameters:
 147:.\Generated_Source\PSoC5/SPIM_2.c **** *  None.
 148:.\Generated_Source\PSoC5/SPIM_2.c **** *
 149:.\Generated_Source\PSoC5/SPIM_2.c **** * Return:
 150:.\Generated_Source\PSoC5/SPIM_2.c **** *  None.
 151:.\Generated_Source\PSoC5/SPIM_2.c **** *
 152:.\Generated_Source\PSoC5/SPIM_2.c **** * Global variables:
 153:.\Generated_Source\PSoC5/SPIM_2.c **** *  SPIM_2_initVar - used to check initial configuration, modified on
 154:.\Generated_Source\PSoC5/SPIM_2.c **** *  first function call.
ARM GAS  C:\Users\ericz\AppData\Local\Temp\ccgTCGw3.s 			page 5


 155:.\Generated_Source\PSoC5/SPIM_2.c **** *
 156:.\Generated_Source\PSoC5/SPIM_2.c **** * Theory:
 157:.\Generated_Source\PSoC5/SPIM_2.c **** *  Enable the clock input to enable operation.
 158:.\Generated_Source\PSoC5/SPIM_2.c **** *
 159:.\Generated_Source\PSoC5/SPIM_2.c **** * Reentrant:
 160:.\Generated_Source\PSoC5/SPIM_2.c **** *  No.
 161:.\Generated_Source\PSoC5/SPIM_2.c **** *
 162:.\Generated_Source\PSoC5/SPIM_2.c **** *******************************************************************************/
 163:.\Generated_Source\PSoC5/SPIM_2.c **** void SPIM_2_Start(void) 
 164:.\Generated_Source\PSoC5/SPIM_2.c **** {
 165:.\Generated_Source\PSoC5/SPIM_2.c ****     if(0u == SPIM_2_initVar)
 166:.\Generated_Source\PSoC5/SPIM_2.c ****     {
 167:.\Generated_Source\PSoC5/SPIM_2.c ****         SPIM_2_Init();
 168:.\Generated_Source\PSoC5/SPIM_2.c ****         SPIM_2_initVar = 1u;
 169:.\Generated_Source\PSoC5/SPIM_2.c ****     }
 170:.\Generated_Source\PSoC5/SPIM_2.c **** 
 171:.\Generated_Source\PSoC5/SPIM_2.c ****     SPIM_2_Enable();
 172:.\Generated_Source\PSoC5/SPIM_2.c **** }
 173:.\Generated_Source\PSoC5/SPIM_2.c **** 
 174:.\Generated_Source\PSoC5/SPIM_2.c **** 
 175:.\Generated_Source\PSoC5/SPIM_2.c **** /*******************************************************************************
 176:.\Generated_Source\PSoC5/SPIM_2.c **** * Function Name: SPIM_2_Stop
 177:.\Generated_Source\PSoC5/SPIM_2.c **** ********************************************************************************
 178:.\Generated_Source\PSoC5/SPIM_2.c **** *
 179:.\Generated_Source\PSoC5/SPIM_2.c **** * Summary:
 180:.\Generated_Source\PSoC5/SPIM_2.c **** *  Disable the SPI Master component.
 181:.\Generated_Source\PSoC5/SPIM_2.c **** *
 182:.\Generated_Source\PSoC5/SPIM_2.c **** * Parameters:
 183:.\Generated_Source\PSoC5/SPIM_2.c **** *  None.
 184:.\Generated_Source\PSoC5/SPIM_2.c **** *
 185:.\Generated_Source\PSoC5/SPIM_2.c **** * Return:
 186:.\Generated_Source\PSoC5/SPIM_2.c **** *  None.
 187:.\Generated_Source\PSoC5/SPIM_2.c **** *
 188:.\Generated_Source\PSoC5/SPIM_2.c **** * Theory:
 189:.\Generated_Source\PSoC5/SPIM_2.c **** *  Disable the clock input to enable operation.
 190:.\Generated_Source\PSoC5/SPIM_2.c **** *
 191:.\Generated_Source\PSoC5/SPIM_2.c **** *******************************************************************************/
 192:.\Generated_Source\PSoC5/SPIM_2.c **** void SPIM_2_Stop(void) 
 193:.\Generated_Source\PSoC5/SPIM_2.c **** {
  75              		.loc 1 193 0
  76              		.cfi_startproc
  77              		@ args = 0, pretend = 0, frame = 0
  78              		@ frame_needed = 0, uses_anonymous_args = 0
  79 0000 08B5     		push	{r3, lr}
  80              		.cfi_def_cfa_offset 8
  81              		.cfi_offset 3, -8
  82              		.cfi_offset 14, -4
 194:.\Generated_Source\PSoC5/SPIM_2.c ****     uint8 enableInterrupts;
 195:.\Generated_Source\PSoC5/SPIM_2.c **** 
 196:.\Generated_Source\PSoC5/SPIM_2.c ****     enableInterrupts = CyEnterCriticalSection();
  83              		.loc 1 196 0
  84 0002 FFF7FEFF 		bl	CyEnterCriticalSection
  85              	.LVL3:
 197:.\Generated_Source\PSoC5/SPIM_2.c ****     SPIM_2_TX_STATUS_ACTL_REG &= ((uint8) ~SPIM_2_INT_ENABLE);
  86              		.loc 1 197 0
  87 0006 084A     		ldr	r2, .L7
  88 0008 1378     		ldrb	r3, [r2]	@ zero_extendqisi2
ARM GAS  C:\Users\ericz\AppData\Local\Temp\ccgTCGw3.s 			page 6


  89 000a 03F0EF03 		and	r3, r3, #239
  90 000e 1370     		strb	r3, [r2]
 198:.\Generated_Source\PSoC5/SPIM_2.c ****     SPIM_2_RX_STATUS_ACTL_REG &= ((uint8) ~SPIM_2_INT_ENABLE);
  91              		.loc 1 198 0
  92 0010 02F58172 		add	r2, r2, #258
  93 0014 1378     		ldrb	r3, [r2]	@ zero_extendqisi2
  94 0016 03F0EF03 		and	r3, r3, #239
  95 001a 1370     		strb	r3, [r2]
 199:.\Generated_Source\PSoC5/SPIM_2.c ****     CyExitCriticalSection(enableInterrupts);
  96              		.loc 1 199 0
  97 001c FFF7FEFF 		bl	CyExitCriticalSection
  98              	.LVL4:
 200:.\Generated_Source\PSoC5/SPIM_2.c **** 
 201:.\Generated_Source\PSoC5/SPIM_2.c ****     #if(0u != SPIM_2_INTERNAL_CLOCK)
 202:.\Generated_Source\PSoC5/SPIM_2.c ****         SPIM_2_IntClock_Disable();
  99              		.loc 1 202 0
 100 0020 FFF7FEFF 		bl	SPIM_2_IntClock_Stop
 101              	.LVL5:
 102 0024 08BD     		pop	{r3, pc}
 103              	.L8:
 104 0026 00BF     		.align	2
 105              	.L7:
 106 0028 98640040 		.word	1073767576
 107              		.cfi_endproc
 108              	.LFE3:
 109              		.size	SPIM_2_Stop, .-SPIM_2_Stop
 110              		.section	.text.SPIM_2_EnableTxInt,"ax",%progbits
 111              		.align	2
 112              		.global	SPIM_2_EnableTxInt
 113              		.thumb
 114              		.thumb_func
 115              		.type	SPIM_2_EnableTxInt, %function
 116              	SPIM_2_EnableTxInt:
 117              	.LFB4:
 203:.\Generated_Source\PSoC5/SPIM_2.c ****     #endif /* (0u != SPIM_2_INTERNAL_CLOCK) */
 204:.\Generated_Source\PSoC5/SPIM_2.c **** 
 205:.\Generated_Source\PSoC5/SPIM_2.c ****     SPIM_2_DisableTxInt();
 206:.\Generated_Source\PSoC5/SPIM_2.c ****     SPIM_2_DisableRxInt();
 207:.\Generated_Source\PSoC5/SPIM_2.c **** }
 208:.\Generated_Source\PSoC5/SPIM_2.c **** 
 209:.\Generated_Source\PSoC5/SPIM_2.c **** 
 210:.\Generated_Source\PSoC5/SPIM_2.c **** /*******************************************************************************
 211:.\Generated_Source\PSoC5/SPIM_2.c **** * Function Name: SPIM_2_EnableTxInt
 212:.\Generated_Source\PSoC5/SPIM_2.c **** ********************************************************************************
 213:.\Generated_Source\PSoC5/SPIM_2.c **** *
 214:.\Generated_Source\PSoC5/SPIM_2.c **** * Summary:
 215:.\Generated_Source\PSoC5/SPIM_2.c **** *  Enable internal Tx interrupt generation.
 216:.\Generated_Source\PSoC5/SPIM_2.c **** *
 217:.\Generated_Source\PSoC5/SPIM_2.c **** * Parameters:
 218:.\Generated_Source\PSoC5/SPIM_2.c **** *  None.
 219:.\Generated_Source\PSoC5/SPIM_2.c **** *
 220:.\Generated_Source\PSoC5/SPIM_2.c **** * Return:
 221:.\Generated_Source\PSoC5/SPIM_2.c **** *  None.
 222:.\Generated_Source\PSoC5/SPIM_2.c **** *
 223:.\Generated_Source\PSoC5/SPIM_2.c **** * Theory:
 224:.\Generated_Source\PSoC5/SPIM_2.c **** *  Enable the internal Tx interrupt output -or- the interrupt component itself.
 225:.\Generated_Source\PSoC5/SPIM_2.c **** *
ARM GAS  C:\Users\ericz\AppData\Local\Temp\ccgTCGw3.s 			page 7


 226:.\Generated_Source\PSoC5/SPIM_2.c **** *******************************************************************************/
 227:.\Generated_Source\PSoC5/SPIM_2.c **** void SPIM_2_EnableTxInt(void) 
 228:.\Generated_Source\PSoC5/SPIM_2.c **** {
 118              		.loc 1 228 0
 119              		.cfi_startproc
 120              		@ args = 0, pretend = 0, frame = 0
 121              		@ frame_needed = 0, uses_anonymous_args = 0
 122              		@ link register save eliminated.
 123 0000 7047     		bx	lr
 124              		.cfi_endproc
 125              	.LFE4:
 126              		.size	SPIM_2_EnableTxInt, .-SPIM_2_EnableTxInt
 127 0002 00BF     		.section	.text.SPIM_2_EnableRxInt,"ax",%progbits
 128              		.align	2
 129              		.global	SPIM_2_EnableRxInt
 130              		.thumb
 131              		.thumb_func
 132              		.type	SPIM_2_EnableRxInt, %function
 133              	SPIM_2_EnableRxInt:
 134              	.LFB5:
 229:.\Generated_Source\PSoC5/SPIM_2.c ****     #if(0u != SPIM_2_INTERNAL_TX_INT_ENABLED)
 230:.\Generated_Source\PSoC5/SPIM_2.c ****         CyIntEnable(SPIM_2_TX_ISR_NUMBER);
 231:.\Generated_Source\PSoC5/SPIM_2.c ****     #endif /* (0u != SPIM_2_INTERNAL_TX_INT_ENABLED) */
 232:.\Generated_Source\PSoC5/SPIM_2.c **** }
 233:.\Generated_Source\PSoC5/SPIM_2.c **** 
 234:.\Generated_Source\PSoC5/SPIM_2.c **** 
 235:.\Generated_Source\PSoC5/SPIM_2.c **** /*******************************************************************************
 236:.\Generated_Source\PSoC5/SPIM_2.c **** * Function Name: SPIM_2_EnableRxInt
 237:.\Generated_Source\PSoC5/SPIM_2.c **** ********************************************************************************
 238:.\Generated_Source\PSoC5/SPIM_2.c **** *
 239:.\Generated_Source\PSoC5/SPIM_2.c **** * Summary:
 240:.\Generated_Source\PSoC5/SPIM_2.c **** *  Enable internal Rx interrupt generation.
 241:.\Generated_Source\PSoC5/SPIM_2.c **** *
 242:.\Generated_Source\PSoC5/SPIM_2.c **** * Parameters:
 243:.\Generated_Source\PSoC5/SPIM_2.c **** *  None.
 244:.\Generated_Source\PSoC5/SPIM_2.c **** *
 245:.\Generated_Source\PSoC5/SPIM_2.c **** * Return:
 246:.\Generated_Source\PSoC5/SPIM_2.c **** *  None.
 247:.\Generated_Source\PSoC5/SPIM_2.c **** *
 248:.\Generated_Source\PSoC5/SPIM_2.c **** * Theory:
 249:.\Generated_Source\PSoC5/SPIM_2.c **** *  Enable the internal Rx interrupt output -or- the interrupt component itself.
 250:.\Generated_Source\PSoC5/SPIM_2.c **** *
 251:.\Generated_Source\PSoC5/SPIM_2.c **** *******************************************************************************/
 252:.\Generated_Source\PSoC5/SPIM_2.c **** void SPIM_2_EnableRxInt(void) 
 253:.\Generated_Source\PSoC5/SPIM_2.c **** {
 135              		.loc 1 253 0
 136              		.cfi_startproc
 137              		@ args = 0, pretend = 0, frame = 0
 138              		@ frame_needed = 0, uses_anonymous_args = 0
 139              		@ link register save eliminated.
 140 0000 7047     		bx	lr
 141              		.cfi_endproc
 142              	.LFE5:
 143              		.size	SPIM_2_EnableRxInt, .-SPIM_2_EnableRxInt
 144 0002 00BF     		.section	.text.SPIM_2_DisableTxInt,"ax",%progbits
 145              		.align	2
 146              		.global	SPIM_2_DisableTxInt
ARM GAS  C:\Users\ericz\AppData\Local\Temp\ccgTCGw3.s 			page 8


 147              		.thumb
 148              		.thumb_func
 149              		.type	SPIM_2_DisableTxInt, %function
 150              	SPIM_2_DisableTxInt:
 151              	.LFB6:
 254:.\Generated_Source\PSoC5/SPIM_2.c ****     #if(0u != SPIM_2_INTERNAL_RX_INT_ENABLED)
 255:.\Generated_Source\PSoC5/SPIM_2.c ****         CyIntEnable(SPIM_2_RX_ISR_NUMBER);
 256:.\Generated_Source\PSoC5/SPIM_2.c ****     #endif /* (0u != SPIM_2_INTERNAL_RX_INT_ENABLED) */
 257:.\Generated_Source\PSoC5/SPIM_2.c **** }
 258:.\Generated_Source\PSoC5/SPIM_2.c **** 
 259:.\Generated_Source\PSoC5/SPIM_2.c **** 
 260:.\Generated_Source\PSoC5/SPIM_2.c **** /*******************************************************************************
 261:.\Generated_Source\PSoC5/SPIM_2.c **** * Function Name: SPIM_2_DisableTxInt
 262:.\Generated_Source\PSoC5/SPIM_2.c **** ********************************************************************************
 263:.\Generated_Source\PSoC5/SPIM_2.c **** *
 264:.\Generated_Source\PSoC5/SPIM_2.c **** * Summary:
 265:.\Generated_Source\PSoC5/SPIM_2.c **** *  Disable internal Tx interrupt generation.
 266:.\Generated_Source\PSoC5/SPIM_2.c **** *
 267:.\Generated_Source\PSoC5/SPIM_2.c **** * Parameters:
 268:.\Generated_Source\PSoC5/SPIM_2.c **** *  None.
 269:.\Generated_Source\PSoC5/SPIM_2.c **** *
 270:.\Generated_Source\PSoC5/SPIM_2.c **** * Return:
 271:.\Generated_Source\PSoC5/SPIM_2.c **** *  None.
 272:.\Generated_Source\PSoC5/SPIM_2.c **** *
 273:.\Generated_Source\PSoC5/SPIM_2.c **** * Theory:
 274:.\Generated_Source\PSoC5/SPIM_2.c **** *  Disable the internal Tx interrupt output -or- the interrupt component itself.
 275:.\Generated_Source\PSoC5/SPIM_2.c **** *
 276:.\Generated_Source\PSoC5/SPIM_2.c **** *******************************************************************************/
 277:.\Generated_Source\PSoC5/SPIM_2.c **** void SPIM_2_DisableTxInt(void) 
 278:.\Generated_Source\PSoC5/SPIM_2.c **** {
 152              		.loc 1 278 0
 153              		.cfi_startproc
 154              		@ args = 0, pretend = 0, frame = 0
 155              		@ frame_needed = 0, uses_anonymous_args = 0
 156              		@ link register save eliminated.
 157 0000 7047     		bx	lr
 158              		.cfi_endproc
 159              	.LFE6:
 160              		.size	SPIM_2_DisableTxInt, .-SPIM_2_DisableTxInt
 161 0002 00BF     		.section	.text.SPIM_2_DisableRxInt,"ax",%progbits
 162              		.align	2
 163              		.global	SPIM_2_DisableRxInt
 164              		.thumb
 165              		.thumb_func
 166              		.type	SPIM_2_DisableRxInt, %function
 167              	SPIM_2_DisableRxInt:
 168              	.LFB7:
 279:.\Generated_Source\PSoC5/SPIM_2.c ****     #if(0u != SPIM_2_INTERNAL_TX_INT_ENABLED)
 280:.\Generated_Source\PSoC5/SPIM_2.c ****         CyIntDisable(SPIM_2_TX_ISR_NUMBER);
 281:.\Generated_Source\PSoC5/SPIM_2.c ****     #endif /* (0u != SPIM_2_INTERNAL_TX_INT_ENABLED) */
 282:.\Generated_Source\PSoC5/SPIM_2.c **** }
 283:.\Generated_Source\PSoC5/SPIM_2.c **** 
 284:.\Generated_Source\PSoC5/SPIM_2.c **** 
 285:.\Generated_Source\PSoC5/SPIM_2.c **** /*******************************************************************************
 286:.\Generated_Source\PSoC5/SPIM_2.c **** * Function Name: SPIM_2_DisableRxInt
 287:.\Generated_Source\PSoC5/SPIM_2.c **** ********************************************************************************
 288:.\Generated_Source\PSoC5/SPIM_2.c **** *
ARM GAS  C:\Users\ericz\AppData\Local\Temp\ccgTCGw3.s 			page 9


 289:.\Generated_Source\PSoC5/SPIM_2.c **** * Summary:
 290:.\Generated_Source\PSoC5/SPIM_2.c **** *  Disable internal Rx interrupt generation.
 291:.\Generated_Source\PSoC5/SPIM_2.c **** *
 292:.\Generated_Source\PSoC5/SPIM_2.c **** * Parameters:
 293:.\Generated_Source\PSoC5/SPIM_2.c **** *  None.
 294:.\Generated_Source\PSoC5/SPIM_2.c **** *
 295:.\Generated_Source\PSoC5/SPIM_2.c **** * Return:
 296:.\Generated_Source\PSoC5/SPIM_2.c **** *  None.
 297:.\Generated_Source\PSoC5/SPIM_2.c **** *
 298:.\Generated_Source\PSoC5/SPIM_2.c **** * Theory:
 299:.\Generated_Source\PSoC5/SPIM_2.c **** *  Disable the internal Rx interrupt output -or- the interrupt component itself.
 300:.\Generated_Source\PSoC5/SPIM_2.c **** *
 301:.\Generated_Source\PSoC5/SPIM_2.c **** *******************************************************************************/
 302:.\Generated_Source\PSoC5/SPIM_2.c **** void SPIM_2_DisableRxInt(void) 
 303:.\Generated_Source\PSoC5/SPIM_2.c **** {
 169              		.loc 1 303 0
 170              		.cfi_startproc
 171              		@ args = 0, pretend = 0, frame = 0
 172              		@ frame_needed = 0, uses_anonymous_args = 0
 173              		@ link register save eliminated.
 174 0000 7047     		bx	lr
 175              		.cfi_endproc
 176              	.LFE7:
 177              		.size	SPIM_2_DisableRxInt, .-SPIM_2_DisableRxInt
 178 0002 00BF     		.section	.text.SPIM_2_SetTxInterruptMode,"ax",%progbits
 179              		.align	2
 180              		.global	SPIM_2_SetTxInterruptMode
 181              		.thumb
 182              		.thumb_func
 183              		.type	SPIM_2_SetTxInterruptMode, %function
 184              	SPIM_2_SetTxInterruptMode:
 185              	.LFB8:
 304:.\Generated_Source\PSoC5/SPIM_2.c ****     #if(0u != SPIM_2_INTERNAL_RX_INT_ENABLED)
 305:.\Generated_Source\PSoC5/SPIM_2.c ****         CyIntDisable(SPIM_2_RX_ISR_NUMBER);
 306:.\Generated_Source\PSoC5/SPIM_2.c ****     #endif /* (0u != SPIM_2_INTERNAL_RX_INT_ENABLED) */
 307:.\Generated_Source\PSoC5/SPIM_2.c **** }
 308:.\Generated_Source\PSoC5/SPIM_2.c **** 
 309:.\Generated_Source\PSoC5/SPIM_2.c **** 
 310:.\Generated_Source\PSoC5/SPIM_2.c **** /*******************************************************************************
 311:.\Generated_Source\PSoC5/SPIM_2.c **** * Function Name: SPIM_2_SetTxInterruptMode
 312:.\Generated_Source\PSoC5/SPIM_2.c **** ********************************************************************************
 313:.\Generated_Source\PSoC5/SPIM_2.c **** *
 314:.\Generated_Source\PSoC5/SPIM_2.c **** * Summary:
 315:.\Generated_Source\PSoC5/SPIM_2.c **** *  Configure which status bits trigger an interrupt event.
 316:.\Generated_Source\PSoC5/SPIM_2.c **** *
 317:.\Generated_Source\PSoC5/SPIM_2.c **** * Parameters:
 318:.\Generated_Source\PSoC5/SPIM_2.c **** *  intSrc: An or'd combination of the desired status bit masks (defined in the
 319:.\Generated_Source\PSoC5/SPIM_2.c **** *  header file).
 320:.\Generated_Source\PSoC5/SPIM_2.c **** *
 321:.\Generated_Source\PSoC5/SPIM_2.c **** * Return:
 322:.\Generated_Source\PSoC5/SPIM_2.c **** *  None.
 323:.\Generated_Source\PSoC5/SPIM_2.c **** *
 324:.\Generated_Source\PSoC5/SPIM_2.c **** * Theory:
 325:.\Generated_Source\PSoC5/SPIM_2.c **** *  Enables the output of specific status bits to the interrupt controller.
 326:.\Generated_Source\PSoC5/SPIM_2.c **** *
 327:.\Generated_Source\PSoC5/SPIM_2.c **** *******************************************************************************/
 328:.\Generated_Source\PSoC5/SPIM_2.c **** void SPIM_2_SetTxInterruptMode(uint8 intSrc) 
ARM GAS  C:\Users\ericz\AppData\Local\Temp\ccgTCGw3.s 			page 10


 329:.\Generated_Source\PSoC5/SPIM_2.c **** {
 186              		.loc 1 329 0
 187              		.cfi_startproc
 188              		@ args = 0, pretend = 0, frame = 0
 189              		@ frame_needed = 0, uses_anonymous_args = 0
 190              		@ link register save eliminated.
 191              	.LVL6:
 330:.\Generated_Source\PSoC5/SPIM_2.c ****     SPIM_2_TX_STATUS_MASK_REG = intSrc;
 192              		.loc 1 330 0
 193 0000 014B     		ldr	r3, .L14
 194 0002 1870     		strb	r0, [r3]
 195 0004 7047     		bx	lr
 196              	.L15:
 197 0006 00BF     		.align	2
 198              	.L14:
 199 0008 88640040 		.word	1073767560
 200              		.cfi_endproc
 201              	.LFE8:
 202              		.size	SPIM_2_SetTxInterruptMode, .-SPIM_2_SetTxInterruptMode
 203              		.section	.text.SPIM_2_SetRxInterruptMode,"ax",%progbits
 204              		.align	2
 205              		.global	SPIM_2_SetRxInterruptMode
 206              		.thumb
 207              		.thumb_func
 208              		.type	SPIM_2_SetRxInterruptMode, %function
 209              	SPIM_2_SetRxInterruptMode:
 210              	.LFB9:
 331:.\Generated_Source\PSoC5/SPIM_2.c **** }
 332:.\Generated_Source\PSoC5/SPIM_2.c **** 
 333:.\Generated_Source\PSoC5/SPIM_2.c **** 
 334:.\Generated_Source\PSoC5/SPIM_2.c **** /*******************************************************************************
 335:.\Generated_Source\PSoC5/SPIM_2.c **** * Function Name: SPIM_2_SetRxInterruptMode
 336:.\Generated_Source\PSoC5/SPIM_2.c **** ********************************************************************************
 337:.\Generated_Source\PSoC5/SPIM_2.c **** *
 338:.\Generated_Source\PSoC5/SPIM_2.c **** * Summary:
 339:.\Generated_Source\PSoC5/SPIM_2.c **** *  Configure which status bits trigger an interrupt event.
 340:.\Generated_Source\PSoC5/SPIM_2.c **** *
 341:.\Generated_Source\PSoC5/SPIM_2.c **** * Parameters:
 342:.\Generated_Source\PSoC5/SPIM_2.c **** *  intSrc: An or'd combination of the desired status bit masks (defined in the
 343:.\Generated_Source\PSoC5/SPIM_2.c **** *  header file).
 344:.\Generated_Source\PSoC5/SPIM_2.c **** *
 345:.\Generated_Source\PSoC5/SPIM_2.c **** * Return:
 346:.\Generated_Source\PSoC5/SPIM_2.c **** *  None.
 347:.\Generated_Source\PSoC5/SPIM_2.c **** *
 348:.\Generated_Source\PSoC5/SPIM_2.c **** * Theory:
 349:.\Generated_Source\PSoC5/SPIM_2.c **** *  Enables the output of specific status bits to the interrupt controller.
 350:.\Generated_Source\PSoC5/SPIM_2.c **** *
 351:.\Generated_Source\PSoC5/SPIM_2.c **** *******************************************************************************/
 352:.\Generated_Source\PSoC5/SPIM_2.c **** void SPIM_2_SetRxInterruptMode(uint8 intSrc) 
 353:.\Generated_Source\PSoC5/SPIM_2.c **** {
 211              		.loc 1 353 0
 212              		.cfi_startproc
 213              		@ args = 0, pretend = 0, frame = 0
 214              		@ frame_needed = 0, uses_anonymous_args = 0
 215              		@ link register save eliminated.
 216              	.LVL7:
 354:.\Generated_Source\PSoC5/SPIM_2.c ****     SPIM_2_RX_STATUS_MASK_REG  = intSrc;
ARM GAS  C:\Users\ericz\AppData\Local\Temp\ccgTCGw3.s 			page 11


 217              		.loc 1 354 0
 218 0000 014B     		ldr	r3, .L17
 219 0002 1870     		strb	r0, [r3]
 220 0004 7047     		bx	lr
 221              	.L18:
 222 0006 00BF     		.align	2
 223              	.L17:
 224 0008 8A650040 		.word	1073767818
 225              		.cfi_endproc
 226              	.LFE9:
 227              		.size	SPIM_2_SetRxInterruptMode, .-SPIM_2_SetRxInterruptMode
 228              		.section	.text.SPIM_2_ReadTxStatus,"ax",%progbits
 229              		.align	2
 230              		.global	SPIM_2_ReadTxStatus
 231              		.thumb
 232              		.thumb_func
 233              		.type	SPIM_2_ReadTxStatus, %function
 234              	SPIM_2_ReadTxStatus:
 235              	.LFB10:
 355:.\Generated_Source\PSoC5/SPIM_2.c **** }
 356:.\Generated_Source\PSoC5/SPIM_2.c **** 
 357:.\Generated_Source\PSoC5/SPIM_2.c **** 
 358:.\Generated_Source\PSoC5/SPIM_2.c **** /*******************************************************************************
 359:.\Generated_Source\PSoC5/SPIM_2.c **** * Function Name: SPIM_2_ReadTxStatus
 360:.\Generated_Source\PSoC5/SPIM_2.c **** ********************************************************************************
 361:.\Generated_Source\PSoC5/SPIM_2.c **** *
 362:.\Generated_Source\PSoC5/SPIM_2.c **** * Summary:
 363:.\Generated_Source\PSoC5/SPIM_2.c **** *  Read the Tx status register for the component.
 364:.\Generated_Source\PSoC5/SPIM_2.c **** *
 365:.\Generated_Source\PSoC5/SPIM_2.c **** * Parameters:
 366:.\Generated_Source\PSoC5/SPIM_2.c **** *  None.
 367:.\Generated_Source\PSoC5/SPIM_2.c **** *
 368:.\Generated_Source\PSoC5/SPIM_2.c **** * Return:
 369:.\Generated_Source\PSoC5/SPIM_2.c **** *  Contents of the Tx status register.
 370:.\Generated_Source\PSoC5/SPIM_2.c **** *
 371:.\Generated_Source\PSoC5/SPIM_2.c **** * Global variables:
 372:.\Generated_Source\PSoC5/SPIM_2.c **** *  SPIM_2_swStatusTx - used to store in software status register,
 373:.\Generated_Source\PSoC5/SPIM_2.c **** *  modified every function call - resets to zero.
 374:.\Generated_Source\PSoC5/SPIM_2.c **** *
 375:.\Generated_Source\PSoC5/SPIM_2.c **** * Theory:
 376:.\Generated_Source\PSoC5/SPIM_2.c **** *  Allows the user and the API to read the Tx status register for error
 377:.\Generated_Source\PSoC5/SPIM_2.c **** *  detection and flow control.
 378:.\Generated_Source\PSoC5/SPIM_2.c **** *
 379:.\Generated_Source\PSoC5/SPIM_2.c **** * Side Effects:
 380:.\Generated_Source\PSoC5/SPIM_2.c **** *  Clear Tx status register of the component.
 381:.\Generated_Source\PSoC5/SPIM_2.c **** *
 382:.\Generated_Source\PSoC5/SPIM_2.c **** * Reentrant:
 383:.\Generated_Source\PSoC5/SPIM_2.c **** *  No.
 384:.\Generated_Source\PSoC5/SPIM_2.c **** *
 385:.\Generated_Source\PSoC5/SPIM_2.c **** *******************************************************************************/
 386:.\Generated_Source\PSoC5/SPIM_2.c **** uint8 SPIM_2_ReadTxStatus(void) 
 387:.\Generated_Source\PSoC5/SPIM_2.c **** {
 236              		.loc 1 387 0
 237              		.cfi_startproc
 238              		@ args = 0, pretend = 0, frame = 0
 239              		@ frame_needed = 0, uses_anonymous_args = 0
 240              		@ link register save eliminated.
ARM GAS  C:\Users\ericz\AppData\Local\Temp\ccgTCGw3.s 			page 12


 388:.\Generated_Source\PSoC5/SPIM_2.c ****     uint8 tmpStatus;
 389:.\Generated_Source\PSoC5/SPIM_2.c **** 
 390:.\Generated_Source\PSoC5/SPIM_2.c ****     #if(SPIM_2_TX_SOFTWARE_BUF_ENABLED)
 391:.\Generated_Source\PSoC5/SPIM_2.c ****         /* Disable TX interrupt to protect global veriables */
 392:.\Generated_Source\PSoC5/SPIM_2.c ****         SPIM_2_DisableTxInt();
 393:.\Generated_Source\PSoC5/SPIM_2.c **** 
 394:.\Generated_Source\PSoC5/SPIM_2.c ****         tmpStatus = SPIM_2_GET_STATUS_TX(SPIM_2_swStatusTx);
 395:.\Generated_Source\PSoC5/SPIM_2.c ****         SPIM_2_swStatusTx = 0u;
 396:.\Generated_Source\PSoC5/SPIM_2.c **** 
 397:.\Generated_Source\PSoC5/SPIM_2.c ****         SPIM_2_EnableTxInt();
 398:.\Generated_Source\PSoC5/SPIM_2.c **** 
 399:.\Generated_Source\PSoC5/SPIM_2.c ****     #else
 400:.\Generated_Source\PSoC5/SPIM_2.c **** 
 401:.\Generated_Source\PSoC5/SPIM_2.c ****         tmpStatus = SPIM_2_TX_STATUS_REG;
 241              		.loc 1 401 0
 242 0000 014B     		ldr	r3, .L20
 243 0002 1878     		ldrb	r0, [r3]	@ zero_extendqisi2
 244              	.LVL8:
 402:.\Generated_Source\PSoC5/SPIM_2.c **** 
 403:.\Generated_Source\PSoC5/SPIM_2.c ****     #endif /* (SPIM_2_TX_SOFTWARE_BUF_ENABLED) */
 404:.\Generated_Source\PSoC5/SPIM_2.c **** 
 405:.\Generated_Source\PSoC5/SPIM_2.c ****     return(tmpStatus);
 406:.\Generated_Source\PSoC5/SPIM_2.c **** }
 245              		.loc 1 406 0
 246 0004 7047     		bx	lr
 247              	.L21:
 248 0006 00BF     		.align	2
 249              	.L20:
 250 0008 68640040 		.word	1073767528
 251              		.cfi_endproc
 252              	.LFE10:
 253              		.size	SPIM_2_ReadTxStatus, .-SPIM_2_ReadTxStatus
 254              		.section	.text.SPIM_2_ReadRxStatus,"ax",%progbits
 255              		.align	2
 256              		.global	SPIM_2_ReadRxStatus
 257              		.thumb
 258              		.thumb_func
 259              		.type	SPIM_2_ReadRxStatus, %function
 260              	SPIM_2_ReadRxStatus:
 261              	.LFB11:
 407:.\Generated_Source\PSoC5/SPIM_2.c **** 
 408:.\Generated_Source\PSoC5/SPIM_2.c **** 
 409:.\Generated_Source\PSoC5/SPIM_2.c **** /*******************************************************************************
 410:.\Generated_Source\PSoC5/SPIM_2.c **** * Function Name: SPIM_2_ReadRxStatus
 411:.\Generated_Source\PSoC5/SPIM_2.c **** ********************************************************************************
 412:.\Generated_Source\PSoC5/SPIM_2.c **** *
 413:.\Generated_Source\PSoC5/SPIM_2.c **** * Summary:
 414:.\Generated_Source\PSoC5/SPIM_2.c **** *  Read the Rx status register for the component.
 415:.\Generated_Source\PSoC5/SPIM_2.c **** *
 416:.\Generated_Source\PSoC5/SPIM_2.c **** * Parameters:
 417:.\Generated_Source\PSoC5/SPIM_2.c **** *  None.
 418:.\Generated_Source\PSoC5/SPIM_2.c **** *
 419:.\Generated_Source\PSoC5/SPIM_2.c **** * Return:
 420:.\Generated_Source\PSoC5/SPIM_2.c **** *  Contents of the Rx status register.
 421:.\Generated_Source\PSoC5/SPIM_2.c **** *
 422:.\Generated_Source\PSoC5/SPIM_2.c **** * Global variables:
 423:.\Generated_Source\PSoC5/SPIM_2.c **** *  SPIM_2_swStatusRx - used to store in software Rx status register,
ARM GAS  C:\Users\ericz\AppData\Local\Temp\ccgTCGw3.s 			page 13


 424:.\Generated_Source\PSoC5/SPIM_2.c **** *  modified every function call - resets to zero.
 425:.\Generated_Source\PSoC5/SPIM_2.c **** *
 426:.\Generated_Source\PSoC5/SPIM_2.c **** * Theory:
 427:.\Generated_Source\PSoC5/SPIM_2.c **** *  Allows the user and the API to read the Rx status register for error
 428:.\Generated_Source\PSoC5/SPIM_2.c **** *  detection and flow control.
 429:.\Generated_Source\PSoC5/SPIM_2.c **** *
 430:.\Generated_Source\PSoC5/SPIM_2.c **** * Side Effects:
 431:.\Generated_Source\PSoC5/SPIM_2.c **** *  Clear Rx status register of the component.
 432:.\Generated_Source\PSoC5/SPIM_2.c **** *
 433:.\Generated_Source\PSoC5/SPIM_2.c **** * Reentrant:
 434:.\Generated_Source\PSoC5/SPIM_2.c **** *  No.
 435:.\Generated_Source\PSoC5/SPIM_2.c **** *
 436:.\Generated_Source\PSoC5/SPIM_2.c **** *******************************************************************************/
 437:.\Generated_Source\PSoC5/SPIM_2.c **** uint8 SPIM_2_ReadRxStatus(void) 
 438:.\Generated_Source\PSoC5/SPIM_2.c **** {
 262              		.loc 1 438 0
 263              		.cfi_startproc
 264              		@ args = 0, pretend = 0, frame = 0
 265              		@ frame_needed = 0, uses_anonymous_args = 0
 266              		@ link register save eliminated.
 439:.\Generated_Source\PSoC5/SPIM_2.c ****     uint8 tmpStatus;
 440:.\Generated_Source\PSoC5/SPIM_2.c **** 
 441:.\Generated_Source\PSoC5/SPIM_2.c ****     #if(SPIM_2_RX_SOFTWARE_BUF_ENABLED)
 442:.\Generated_Source\PSoC5/SPIM_2.c ****         /* Disable RX interrupt to protect global veriables */
 443:.\Generated_Source\PSoC5/SPIM_2.c ****         SPIM_2_DisableRxInt();
 444:.\Generated_Source\PSoC5/SPIM_2.c **** 
 445:.\Generated_Source\PSoC5/SPIM_2.c ****         tmpStatus = SPIM_2_GET_STATUS_RX(SPIM_2_swStatusRx);
 446:.\Generated_Source\PSoC5/SPIM_2.c ****         SPIM_2_swStatusRx = 0u;
 447:.\Generated_Source\PSoC5/SPIM_2.c **** 
 448:.\Generated_Source\PSoC5/SPIM_2.c ****         SPIM_2_EnableRxInt();
 449:.\Generated_Source\PSoC5/SPIM_2.c **** 
 450:.\Generated_Source\PSoC5/SPIM_2.c ****     #else
 451:.\Generated_Source\PSoC5/SPIM_2.c **** 
 452:.\Generated_Source\PSoC5/SPIM_2.c ****         tmpStatus = SPIM_2_RX_STATUS_REG;
 267              		.loc 1 452 0
 268 0000 014B     		ldr	r3, .L23
 269 0002 1878     		ldrb	r0, [r3]	@ zero_extendqisi2
 270              	.LVL9:
 453:.\Generated_Source\PSoC5/SPIM_2.c **** 
 454:.\Generated_Source\PSoC5/SPIM_2.c ****     #endif /* (SPIM_2_RX_SOFTWARE_BUF_ENABLED) */
 455:.\Generated_Source\PSoC5/SPIM_2.c **** 
 456:.\Generated_Source\PSoC5/SPIM_2.c ****     return(tmpStatus);
 457:.\Generated_Source\PSoC5/SPIM_2.c **** }
 271              		.loc 1 457 0
 272 0004 7047     		bx	lr
 273              	.L24:
 274 0006 00BF     		.align	2
 275              	.L23:
 276 0008 6A650040 		.word	1073767786
 277              		.cfi_endproc
 278              	.LFE11:
 279              		.size	SPIM_2_ReadRxStatus, .-SPIM_2_ReadRxStatus
 280              		.section	.text.SPIM_2_WriteTxData,"ax",%progbits
 281              		.align	2
 282              		.global	SPIM_2_WriteTxData
 283              		.thumb
 284              		.thumb_func
ARM GAS  C:\Users\ericz\AppData\Local\Temp\ccgTCGw3.s 			page 14


 285              		.type	SPIM_2_WriteTxData, %function
 286              	SPIM_2_WriteTxData:
 287              	.LFB12:
 458:.\Generated_Source\PSoC5/SPIM_2.c **** 
 459:.\Generated_Source\PSoC5/SPIM_2.c **** 
 460:.\Generated_Source\PSoC5/SPIM_2.c **** /*******************************************************************************
 461:.\Generated_Source\PSoC5/SPIM_2.c **** * Function Name: SPIM_2_WriteTxData
 462:.\Generated_Source\PSoC5/SPIM_2.c **** ********************************************************************************
 463:.\Generated_Source\PSoC5/SPIM_2.c **** *
 464:.\Generated_Source\PSoC5/SPIM_2.c **** * Summary:
 465:.\Generated_Source\PSoC5/SPIM_2.c **** *  Write a byte of data to be sent across the SPI.
 466:.\Generated_Source\PSoC5/SPIM_2.c **** *
 467:.\Generated_Source\PSoC5/SPIM_2.c **** * Parameters:
 468:.\Generated_Source\PSoC5/SPIM_2.c **** *  txDataByte: The data value to send across the SPI.
 469:.\Generated_Source\PSoC5/SPIM_2.c **** *
 470:.\Generated_Source\PSoC5/SPIM_2.c **** * Return:
 471:.\Generated_Source\PSoC5/SPIM_2.c **** *  None.
 472:.\Generated_Source\PSoC5/SPIM_2.c **** *
 473:.\Generated_Source\PSoC5/SPIM_2.c **** * Global variables:
 474:.\Generated_Source\PSoC5/SPIM_2.c **** *  SPIM_2_txBufferWrite - used for the account of the bytes which
 475:.\Generated_Source\PSoC5/SPIM_2.c **** *  have been written down in the TX software buffer, modified every function
 476:.\Generated_Source\PSoC5/SPIM_2.c **** *  call if TX Software Buffer is used.
 477:.\Generated_Source\PSoC5/SPIM_2.c **** *  SPIM_2_txBufferRead - used for the account of the bytes which
 478:.\Generated_Source\PSoC5/SPIM_2.c **** *  have been read from the TX software buffer.
 479:.\Generated_Source\PSoC5/SPIM_2.c **** *  SPIM_2_txBuffer[SPIM_2_TX_BUFFER_SIZE] - used to store
 480:.\Generated_Source\PSoC5/SPIM_2.c **** *  data to sending, modified every function call if TX Software Buffer is used.
 481:.\Generated_Source\PSoC5/SPIM_2.c **** *
 482:.\Generated_Source\PSoC5/SPIM_2.c **** * Theory:
 483:.\Generated_Source\PSoC5/SPIM_2.c **** *  Allows the user to transmit any byte of data in a single transfer.
 484:.\Generated_Source\PSoC5/SPIM_2.c **** *
 485:.\Generated_Source\PSoC5/SPIM_2.c **** * Side Effects:
 486:.\Generated_Source\PSoC5/SPIM_2.c **** *  If this function is called again before the previous byte is finished then
 487:.\Generated_Source\PSoC5/SPIM_2.c **** *  the next byte will be appended to the transfer with no time between
 488:.\Generated_Source\PSoC5/SPIM_2.c **** *  the byte transfers. Clear Tx status register of the component.
 489:.\Generated_Source\PSoC5/SPIM_2.c **** *
 490:.\Generated_Source\PSoC5/SPIM_2.c **** * Reentrant:
 491:.\Generated_Source\PSoC5/SPIM_2.c **** *  No.
 492:.\Generated_Source\PSoC5/SPIM_2.c **** *
 493:.\Generated_Source\PSoC5/SPIM_2.c **** *******************************************************************************/
 494:.\Generated_Source\PSoC5/SPIM_2.c **** void SPIM_2_WriteTxData(uint8 txData) 
 495:.\Generated_Source\PSoC5/SPIM_2.c **** {
 288              		.loc 1 495 0
 289              		.cfi_startproc
 290              		@ args = 0, pretend = 0, frame = 0
 291              		@ frame_needed = 0, uses_anonymous_args = 0
 292              		@ link register save eliminated.
 293              	.LVL10:
 294              	.L26:
 496:.\Generated_Source\PSoC5/SPIM_2.c ****     #if(SPIM_2_TX_SOFTWARE_BUF_ENABLED)
 497:.\Generated_Source\PSoC5/SPIM_2.c **** 
 498:.\Generated_Source\PSoC5/SPIM_2.c ****         uint8 tempStatus;
 499:.\Generated_Source\PSoC5/SPIM_2.c ****         uint8 tmpTxBufferRead;
 500:.\Generated_Source\PSoC5/SPIM_2.c **** 
 501:.\Generated_Source\PSoC5/SPIM_2.c ****         /* Block if TX buffer is FULL: don't overwrite */
 502:.\Generated_Source\PSoC5/SPIM_2.c ****         do
 503:.\Generated_Source\PSoC5/SPIM_2.c ****         {
 504:.\Generated_Source\PSoC5/SPIM_2.c ****             tmpTxBufferRead = SPIM_2_txBufferRead;
ARM GAS  C:\Users\ericz\AppData\Local\Temp\ccgTCGw3.s 			page 15


 505:.\Generated_Source\PSoC5/SPIM_2.c ****             if(0u == tmpTxBufferRead)
 506:.\Generated_Source\PSoC5/SPIM_2.c ****             {
 507:.\Generated_Source\PSoC5/SPIM_2.c ****                 tmpTxBufferRead = (SPIM_2_TX_BUFFER_SIZE - 1u);
 508:.\Generated_Source\PSoC5/SPIM_2.c ****             }
 509:.\Generated_Source\PSoC5/SPIM_2.c ****             else
 510:.\Generated_Source\PSoC5/SPIM_2.c ****             {
 511:.\Generated_Source\PSoC5/SPIM_2.c ****                 tmpTxBufferRead--;
 512:.\Generated_Source\PSoC5/SPIM_2.c ****             }
 513:.\Generated_Source\PSoC5/SPIM_2.c **** 
 514:.\Generated_Source\PSoC5/SPIM_2.c ****         }while(tmpTxBufferRead == SPIM_2_txBufferWrite);
 515:.\Generated_Source\PSoC5/SPIM_2.c **** 
 516:.\Generated_Source\PSoC5/SPIM_2.c ****         /* Disable TX interrupt to protect global veriables */
 517:.\Generated_Source\PSoC5/SPIM_2.c ****         SPIM_2_DisableTxInt();
 518:.\Generated_Source\PSoC5/SPIM_2.c **** 
 519:.\Generated_Source\PSoC5/SPIM_2.c ****         tempStatus = SPIM_2_GET_STATUS_TX(SPIM_2_swStatusTx);
 520:.\Generated_Source\PSoC5/SPIM_2.c ****         SPIM_2_swStatusTx = tempStatus;
 521:.\Generated_Source\PSoC5/SPIM_2.c **** 
 522:.\Generated_Source\PSoC5/SPIM_2.c **** 
 523:.\Generated_Source\PSoC5/SPIM_2.c ****         if((SPIM_2_txBufferRead == SPIM_2_txBufferWrite) &&
 524:.\Generated_Source\PSoC5/SPIM_2.c ****            (0u != (SPIM_2_swStatusTx & SPIM_2_STS_TX_FIFO_NOT_FULL)))
 525:.\Generated_Source\PSoC5/SPIM_2.c ****         {
 526:.\Generated_Source\PSoC5/SPIM_2.c ****             /* Put data element into the TX FIFO */
 527:.\Generated_Source\PSoC5/SPIM_2.c ****             CY_SET_REG8(SPIM_2_TXDATA_PTR, txData);
 528:.\Generated_Source\PSoC5/SPIM_2.c ****         }
 529:.\Generated_Source\PSoC5/SPIM_2.c ****         else
 530:.\Generated_Source\PSoC5/SPIM_2.c ****         {
 531:.\Generated_Source\PSoC5/SPIM_2.c ****             /* Add to the TX software buffer */
 532:.\Generated_Source\PSoC5/SPIM_2.c ****             SPIM_2_txBufferWrite++;
 533:.\Generated_Source\PSoC5/SPIM_2.c ****             if(SPIM_2_txBufferWrite >= SPIM_2_TX_BUFFER_SIZE)
 534:.\Generated_Source\PSoC5/SPIM_2.c ****             {
 535:.\Generated_Source\PSoC5/SPIM_2.c ****                 SPIM_2_txBufferWrite = 0u;
 536:.\Generated_Source\PSoC5/SPIM_2.c ****             }
 537:.\Generated_Source\PSoC5/SPIM_2.c **** 
 538:.\Generated_Source\PSoC5/SPIM_2.c ****             if(SPIM_2_txBufferWrite == SPIM_2_txBufferRead)
 539:.\Generated_Source\PSoC5/SPIM_2.c ****             {
 540:.\Generated_Source\PSoC5/SPIM_2.c ****                 SPIM_2_txBufferRead++;
 541:.\Generated_Source\PSoC5/SPIM_2.c ****                 if(SPIM_2_txBufferRead >= SPIM_2_TX_BUFFER_SIZE)
 542:.\Generated_Source\PSoC5/SPIM_2.c ****                 {
 543:.\Generated_Source\PSoC5/SPIM_2.c ****                     SPIM_2_txBufferRead = 0u;
 544:.\Generated_Source\PSoC5/SPIM_2.c ****                 }
 545:.\Generated_Source\PSoC5/SPIM_2.c ****                 SPIM_2_txBufferFull = 1u;
 546:.\Generated_Source\PSoC5/SPIM_2.c ****             }
 547:.\Generated_Source\PSoC5/SPIM_2.c **** 
 548:.\Generated_Source\PSoC5/SPIM_2.c ****             SPIM_2_txBuffer[SPIM_2_txBufferWrite] = txData;
 549:.\Generated_Source\PSoC5/SPIM_2.c **** 
 550:.\Generated_Source\PSoC5/SPIM_2.c ****             SPIM_2_TX_STATUS_MASK_REG |= SPIM_2_STS_TX_FIFO_NOT_FULL;
 551:.\Generated_Source\PSoC5/SPIM_2.c ****         }
 552:.\Generated_Source\PSoC5/SPIM_2.c **** 
 553:.\Generated_Source\PSoC5/SPIM_2.c ****         SPIM_2_EnableTxInt();
 554:.\Generated_Source\PSoC5/SPIM_2.c **** 
 555:.\Generated_Source\PSoC5/SPIM_2.c ****     #else
 556:.\Generated_Source\PSoC5/SPIM_2.c ****         /* Wait until TX FIFO has a place */
 557:.\Generated_Source\PSoC5/SPIM_2.c ****         while(0u == (SPIM_2_TX_STATUS_REG & SPIM_2_STS_TX_FIFO_NOT_FULL))
 295              		.loc 1 557 0 discriminator 1
 296 0000 034B     		ldr	r3, .L27
 297 0002 1B78     		ldrb	r3, [r3]	@ zero_extendqisi2
 298 0004 13F0040F 		tst	r3, #4
ARM GAS  C:\Users\ericz\AppData\Local\Temp\ccgTCGw3.s 			page 16


 299 0008 FAD0     		beq	.L26
 558:.\Generated_Source\PSoC5/SPIM_2.c ****         {
 559:.\Generated_Source\PSoC5/SPIM_2.c ****         }
 560:.\Generated_Source\PSoC5/SPIM_2.c **** 
 561:.\Generated_Source\PSoC5/SPIM_2.c ****         /* Put data element into the TX FIFO */
 562:.\Generated_Source\PSoC5/SPIM_2.c ****         CY_SET_REG8(SPIM_2_TXDATA_PTR, txData);
 300              		.loc 1 562 0
 301 000a 024B     		ldr	r3, .L27+4
 302 000c 1870     		strb	r0, [r3]
 303 000e 7047     		bx	lr
 304              	.L28:
 305              		.align	2
 306              	.L27:
 307 0010 68640040 		.word	1073767528
 308 0014 4A650040 		.word	1073767754
 309              		.cfi_endproc
 310              	.LFE12:
 311              		.size	SPIM_2_WriteTxData, .-SPIM_2_WriteTxData
 312              		.section	.text.SPIM_2_ReadRxData,"ax",%progbits
 313              		.align	2
 314              		.global	SPIM_2_ReadRxData
 315              		.thumb
 316              		.thumb_func
 317              		.type	SPIM_2_ReadRxData, %function
 318              	SPIM_2_ReadRxData:
 319              	.LFB13:
 563:.\Generated_Source\PSoC5/SPIM_2.c **** 
 564:.\Generated_Source\PSoC5/SPIM_2.c ****     #endif /* (SPIM_2_TX_SOFTWARE_BUF_ENABLED) */
 565:.\Generated_Source\PSoC5/SPIM_2.c **** }
 566:.\Generated_Source\PSoC5/SPIM_2.c **** 
 567:.\Generated_Source\PSoC5/SPIM_2.c **** 
 568:.\Generated_Source\PSoC5/SPIM_2.c **** /*******************************************************************************
 569:.\Generated_Source\PSoC5/SPIM_2.c **** * Function Name: SPIM_2_ReadRxData
 570:.\Generated_Source\PSoC5/SPIM_2.c **** ********************************************************************************
 571:.\Generated_Source\PSoC5/SPIM_2.c **** *
 572:.\Generated_Source\PSoC5/SPIM_2.c **** * Summary:
 573:.\Generated_Source\PSoC5/SPIM_2.c **** *  Read the next byte of data received across the SPI.
 574:.\Generated_Source\PSoC5/SPIM_2.c **** *
 575:.\Generated_Source\PSoC5/SPIM_2.c **** * Parameters:
 576:.\Generated_Source\PSoC5/SPIM_2.c **** *  None.
 577:.\Generated_Source\PSoC5/SPIM_2.c **** *
 578:.\Generated_Source\PSoC5/SPIM_2.c **** * Return:
 579:.\Generated_Source\PSoC5/SPIM_2.c **** *  The next byte of data read from the FIFO.
 580:.\Generated_Source\PSoC5/SPIM_2.c **** *
 581:.\Generated_Source\PSoC5/SPIM_2.c **** * Global variables:
 582:.\Generated_Source\PSoC5/SPIM_2.c **** *  SPIM_2_rxBufferWrite - used for the account of the bytes which
 583:.\Generated_Source\PSoC5/SPIM_2.c **** *  have been written down in the RX software buffer.
 584:.\Generated_Source\PSoC5/SPIM_2.c **** *  SPIM_2_rxBufferRead - used for the account of the bytes which
 585:.\Generated_Source\PSoC5/SPIM_2.c **** *  have been read from the RX software buffer, modified every function
 586:.\Generated_Source\PSoC5/SPIM_2.c **** *  call if RX Software Buffer is used.
 587:.\Generated_Source\PSoC5/SPIM_2.c **** *  SPIM_2_rxBuffer[SPIM_2_RX_BUFFER_SIZE] - used to store
 588:.\Generated_Source\PSoC5/SPIM_2.c **** *  received data.
 589:.\Generated_Source\PSoC5/SPIM_2.c **** *
 590:.\Generated_Source\PSoC5/SPIM_2.c **** * Theory:
 591:.\Generated_Source\PSoC5/SPIM_2.c **** *  Allows the user to read a byte of data received.
 592:.\Generated_Source\PSoC5/SPIM_2.c **** *
 593:.\Generated_Source\PSoC5/SPIM_2.c **** * Side Effects:
ARM GAS  C:\Users\ericz\AppData\Local\Temp\ccgTCGw3.s 			page 17


 594:.\Generated_Source\PSoC5/SPIM_2.c **** *  Will return invalid data if the FIFO is empty. The user should Call
 595:.\Generated_Source\PSoC5/SPIM_2.c **** *  GetRxBufferSize() and if it returns a non-zero value then it is safe to call
 596:.\Generated_Source\PSoC5/SPIM_2.c **** *  ReadByte() function.
 597:.\Generated_Source\PSoC5/SPIM_2.c **** *
 598:.\Generated_Source\PSoC5/SPIM_2.c **** * Reentrant:
 599:.\Generated_Source\PSoC5/SPIM_2.c **** *  No.
 600:.\Generated_Source\PSoC5/SPIM_2.c **** *
 601:.\Generated_Source\PSoC5/SPIM_2.c **** *******************************************************************************/
 602:.\Generated_Source\PSoC5/SPIM_2.c **** uint8 SPIM_2_ReadRxData(void) 
 603:.\Generated_Source\PSoC5/SPIM_2.c **** {
 320              		.loc 1 603 0
 321              		.cfi_startproc
 322              		@ args = 0, pretend = 0, frame = 0
 323              		@ frame_needed = 0, uses_anonymous_args = 0
 324              		@ link register save eliminated.
 604:.\Generated_Source\PSoC5/SPIM_2.c ****     uint8 rxData;
 605:.\Generated_Source\PSoC5/SPIM_2.c **** 
 606:.\Generated_Source\PSoC5/SPIM_2.c ****     #if(SPIM_2_RX_SOFTWARE_BUF_ENABLED)
 607:.\Generated_Source\PSoC5/SPIM_2.c **** 
 608:.\Generated_Source\PSoC5/SPIM_2.c ****         /* Disable RX interrupt to protect global veriables */
 609:.\Generated_Source\PSoC5/SPIM_2.c ****         SPIM_2_DisableRxInt();
 610:.\Generated_Source\PSoC5/SPIM_2.c **** 
 611:.\Generated_Source\PSoC5/SPIM_2.c ****         if(SPIM_2_rxBufferRead != SPIM_2_rxBufferWrite)
 612:.\Generated_Source\PSoC5/SPIM_2.c ****         {
 613:.\Generated_Source\PSoC5/SPIM_2.c ****             if(0u == SPIM_2_rxBufferFull)
 614:.\Generated_Source\PSoC5/SPIM_2.c ****             {
 615:.\Generated_Source\PSoC5/SPIM_2.c ****                 SPIM_2_rxBufferRead++;
 616:.\Generated_Source\PSoC5/SPIM_2.c ****                 if(SPIM_2_rxBufferRead >= SPIM_2_RX_BUFFER_SIZE)
 617:.\Generated_Source\PSoC5/SPIM_2.c ****                 {
 618:.\Generated_Source\PSoC5/SPIM_2.c ****                     SPIM_2_rxBufferRead = 0u;
 619:.\Generated_Source\PSoC5/SPIM_2.c ****                 }
 620:.\Generated_Source\PSoC5/SPIM_2.c ****             }
 621:.\Generated_Source\PSoC5/SPIM_2.c ****             else
 622:.\Generated_Source\PSoC5/SPIM_2.c ****             {
 623:.\Generated_Source\PSoC5/SPIM_2.c ****                 SPIM_2_rxBufferFull = 0u;
 624:.\Generated_Source\PSoC5/SPIM_2.c ****             }
 625:.\Generated_Source\PSoC5/SPIM_2.c ****         }
 626:.\Generated_Source\PSoC5/SPIM_2.c **** 
 627:.\Generated_Source\PSoC5/SPIM_2.c ****         rxData = SPIM_2_rxBuffer[SPIM_2_rxBufferRead];
 628:.\Generated_Source\PSoC5/SPIM_2.c **** 
 629:.\Generated_Source\PSoC5/SPIM_2.c ****         SPIM_2_EnableRxInt();
 630:.\Generated_Source\PSoC5/SPIM_2.c **** 
 631:.\Generated_Source\PSoC5/SPIM_2.c ****     #else
 632:.\Generated_Source\PSoC5/SPIM_2.c **** 
 633:.\Generated_Source\PSoC5/SPIM_2.c ****         rxData = CY_GET_REG8(SPIM_2_RXDATA_PTR);
 325              		.loc 1 633 0
 326 0000 014B     		ldr	r3, .L30
 327 0002 1878     		ldrb	r0, [r3]	@ zero_extendqisi2
 328              	.LVL11:
 634:.\Generated_Source\PSoC5/SPIM_2.c **** 
 635:.\Generated_Source\PSoC5/SPIM_2.c ****     #endif /* (SPIM_2_RX_SOFTWARE_BUF_ENABLED) */
 636:.\Generated_Source\PSoC5/SPIM_2.c **** 
 637:.\Generated_Source\PSoC5/SPIM_2.c ****     return(rxData);
 638:.\Generated_Source\PSoC5/SPIM_2.c **** }
 329              		.loc 1 638 0
 330 0004 7047     		bx	lr
 331              	.L31:
ARM GAS  C:\Users\ericz\AppData\Local\Temp\ccgTCGw3.s 			page 18


 332 0006 00BF     		.align	2
 333              	.L30:
 334 0008 5A650040 		.word	1073767770
 335              		.cfi_endproc
 336              	.LFE13:
 337              		.size	SPIM_2_ReadRxData, .-SPIM_2_ReadRxData
 338              		.section	.text.SPIM_2_GetRxBufferSize,"ax",%progbits
 339              		.align	2
 340              		.global	SPIM_2_GetRxBufferSize
 341              		.thumb
 342              		.thumb_func
 343              		.type	SPIM_2_GetRxBufferSize, %function
 344              	SPIM_2_GetRxBufferSize:
 345              	.LFB14:
 639:.\Generated_Source\PSoC5/SPIM_2.c **** 
 640:.\Generated_Source\PSoC5/SPIM_2.c **** 
 641:.\Generated_Source\PSoC5/SPIM_2.c **** /*******************************************************************************
 642:.\Generated_Source\PSoC5/SPIM_2.c **** * Function Name: SPIM_2_GetRxBufferSize
 643:.\Generated_Source\PSoC5/SPIM_2.c **** ********************************************************************************
 644:.\Generated_Source\PSoC5/SPIM_2.c **** *
 645:.\Generated_Source\PSoC5/SPIM_2.c **** * Summary:
 646:.\Generated_Source\PSoC5/SPIM_2.c **** *  Returns the number of bytes/words of data currently held in the RX buffer.
 647:.\Generated_Source\PSoC5/SPIM_2.c **** *  If RX Software Buffer not used then function return 0 if FIFO empty or 1 if
 648:.\Generated_Source\PSoC5/SPIM_2.c **** *  FIFO not empty. In another case function return size of RX Software Buffer.
 649:.\Generated_Source\PSoC5/SPIM_2.c **** *
 650:.\Generated_Source\PSoC5/SPIM_2.c **** * Parameters:
 651:.\Generated_Source\PSoC5/SPIM_2.c **** *  None.
 652:.\Generated_Source\PSoC5/SPIM_2.c **** *
 653:.\Generated_Source\PSoC5/SPIM_2.c **** * Return:
 654:.\Generated_Source\PSoC5/SPIM_2.c **** *  Integer count of the number of bytes/words in the RX buffer.
 655:.\Generated_Source\PSoC5/SPIM_2.c **** *
 656:.\Generated_Source\PSoC5/SPIM_2.c **** * Global variables:
 657:.\Generated_Source\PSoC5/SPIM_2.c **** *  SPIM_2_rxBufferWrite - used for the account of the bytes which
 658:.\Generated_Source\PSoC5/SPIM_2.c **** *  have been written down in the RX software buffer.
 659:.\Generated_Source\PSoC5/SPIM_2.c **** *  SPIM_2_rxBufferRead - used for the account of the bytes which
 660:.\Generated_Source\PSoC5/SPIM_2.c **** *  have been read from the RX software buffer.
 661:.\Generated_Source\PSoC5/SPIM_2.c **** *
 662:.\Generated_Source\PSoC5/SPIM_2.c **** * Side Effects:
 663:.\Generated_Source\PSoC5/SPIM_2.c **** *  Clear status register of the component.
 664:.\Generated_Source\PSoC5/SPIM_2.c **** *
 665:.\Generated_Source\PSoC5/SPIM_2.c **** *******************************************************************************/
 666:.\Generated_Source\PSoC5/SPIM_2.c **** uint8 SPIM_2_GetRxBufferSize(void) 
 667:.\Generated_Source\PSoC5/SPIM_2.c **** {
 346              		.loc 1 667 0
 347              		.cfi_startproc
 348              		@ args = 0, pretend = 0, frame = 0
 349              		@ frame_needed = 0, uses_anonymous_args = 0
 350              		@ link register save eliminated.
 668:.\Generated_Source\PSoC5/SPIM_2.c ****     uint8 size;
 669:.\Generated_Source\PSoC5/SPIM_2.c **** 
 670:.\Generated_Source\PSoC5/SPIM_2.c ****     #if(SPIM_2_RX_SOFTWARE_BUF_ENABLED)
 671:.\Generated_Source\PSoC5/SPIM_2.c **** 
 672:.\Generated_Source\PSoC5/SPIM_2.c ****         /* Disable RX interrupt to protect global veriables */
 673:.\Generated_Source\PSoC5/SPIM_2.c ****         SPIM_2_DisableRxInt();
 674:.\Generated_Source\PSoC5/SPIM_2.c **** 
 675:.\Generated_Source\PSoC5/SPIM_2.c ****         if(SPIM_2_rxBufferRead == SPIM_2_rxBufferWrite)
 676:.\Generated_Source\PSoC5/SPIM_2.c ****         {
ARM GAS  C:\Users\ericz\AppData\Local\Temp\ccgTCGw3.s 			page 19


 677:.\Generated_Source\PSoC5/SPIM_2.c ****             size = 0u;
 678:.\Generated_Source\PSoC5/SPIM_2.c ****         }
 679:.\Generated_Source\PSoC5/SPIM_2.c ****         else if(SPIM_2_rxBufferRead < SPIM_2_rxBufferWrite)
 680:.\Generated_Source\PSoC5/SPIM_2.c ****         {
 681:.\Generated_Source\PSoC5/SPIM_2.c ****             size = (SPIM_2_rxBufferWrite - SPIM_2_rxBufferRead);
 682:.\Generated_Source\PSoC5/SPIM_2.c ****         }
 683:.\Generated_Source\PSoC5/SPIM_2.c ****         else
 684:.\Generated_Source\PSoC5/SPIM_2.c ****         {
 685:.\Generated_Source\PSoC5/SPIM_2.c ****             size = (SPIM_2_RX_BUFFER_SIZE - SPIM_2_rxBufferRead) + SPIM_2_rxBufferWrite;
 686:.\Generated_Source\PSoC5/SPIM_2.c ****         }
 687:.\Generated_Source\PSoC5/SPIM_2.c **** 
 688:.\Generated_Source\PSoC5/SPIM_2.c ****         SPIM_2_EnableRxInt();
 689:.\Generated_Source\PSoC5/SPIM_2.c **** 
 690:.\Generated_Source\PSoC5/SPIM_2.c ****     #else
 691:.\Generated_Source\PSoC5/SPIM_2.c **** 
 692:.\Generated_Source\PSoC5/SPIM_2.c ****         /* We can only know if there is data in the RX FIFO */
 693:.\Generated_Source\PSoC5/SPIM_2.c ****         size = (0u != (SPIM_2_RX_STATUS_REG & SPIM_2_STS_RX_FIFO_NOT_EMPTY)) ? 1u : 0u;
 351              		.loc 1 693 0
 352 0000 044B     		ldr	r3, .L35
 353 0002 1B78     		ldrb	r3, [r3]	@ zero_extendqisi2
 354 0004 13F0200F 		tst	r3, #32
 355 0008 01D0     		beq	.L34
 356 000a 0120     		movs	r0, #1
 357 000c 7047     		bx	lr
 358              	.L34:
 359 000e 0020     		movs	r0, #0
 360              	.LVL12:
 694:.\Generated_Source\PSoC5/SPIM_2.c **** 
 695:.\Generated_Source\PSoC5/SPIM_2.c ****     #endif /* (SPIM_2_TX_SOFTWARE_BUF_ENABLED) */
 696:.\Generated_Source\PSoC5/SPIM_2.c **** 
 697:.\Generated_Source\PSoC5/SPIM_2.c ****     return(size);
 698:.\Generated_Source\PSoC5/SPIM_2.c **** }
 361              		.loc 1 698 0
 362 0010 7047     		bx	lr
 363              	.L36:
 364 0012 00BF     		.align	2
 365              	.L35:
 366 0014 6A650040 		.word	1073767786
 367              		.cfi_endproc
 368              	.LFE14:
 369              		.size	SPIM_2_GetRxBufferSize, .-SPIM_2_GetRxBufferSize
 370              		.section	.text.SPIM_2_GetTxBufferSize,"ax",%progbits
 371              		.align	2
 372              		.global	SPIM_2_GetTxBufferSize
 373              		.thumb
 374              		.thumb_func
 375              		.type	SPIM_2_GetTxBufferSize, %function
 376              	SPIM_2_GetTxBufferSize:
 377              	.LFB15:
 699:.\Generated_Source\PSoC5/SPIM_2.c **** 
 700:.\Generated_Source\PSoC5/SPIM_2.c **** 
 701:.\Generated_Source\PSoC5/SPIM_2.c **** /*******************************************************************************
 702:.\Generated_Source\PSoC5/SPIM_2.c **** * Function Name: SPIM_2_GetTxBufferSize
 703:.\Generated_Source\PSoC5/SPIM_2.c **** ********************************************************************************
 704:.\Generated_Source\PSoC5/SPIM_2.c **** *
 705:.\Generated_Source\PSoC5/SPIM_2.c **** * Summary:
 706:.\Generated_Source\PSoC5/SPIM_2.c **** *  Returns the number of bytes/words of data currently held in the TX buffer.
ARM GAS  C:\Users\ericz\AppData\Local\Temp\ccgTCGw3.s 			page 20


 707:.\Generated_Source\PSoC5/SPIM_2.c **** *  If TX Software Buffer not used then function return 0 - if FIFO empty, 1 - if
 708:.\Generated_Source\PSoC5/SPIM_2.c **** *  FIFO not full, 4 - if FIFO full. In another case function return size of TX
 709:.\Generated_Source\PSoC5/SPIM_2.c **** *  Software Buffer.
 710:.\Generated_Source\PSoC5/SPIM_2.c **** *
 711:.\Generated_Source\PSoC5/SPIM_2.c **** * Parameters:
 712:.\Generated_Source\PSoC5/SPIM_2.c **** *  None.
 713:.\Generated_Source\PSoC5/SPIM_2.c **** *
 714:.\Generated_Source\PSoC5/SPIM_2.c **** * Return:
 715:.\Generated_Source\PSoC5/SPIM_2.c **** *  Integer count of the number of bytes/words in the TX buffer.
 716:.\Generated_Source\PSoC5/SPIM_2.c **** *
 717:.\Generated_Source\PSoC5/SPIM_2.c **** * Global variables:
 718:.\Generated_Source\PSoC5/SPIM_2.c **** *  SPIM_2_txBufferWrite - used for the account of the bytes which
 719:.\Generated_Source\PSoC5/SPIM_2.c **** *  have been written down in the TX software buffer.
 720:.\Generated_Source\PSoC5/SPIM_2.c **** *  SPIM_2_txBufferRead - used for the account of the bytes which
 721:.\Generated_Source\PSoC5/SPIM_2.c **** *  have been read from the TX software buffer.
 722:.\Generated_Source\PSoC5/SPIM_2.c **** *
 723:.\Generated_Source\PSoC5/SPIM_2.c **** * Side Effects:
 724:.\Generated_Source\PSoC5/SPIM_2.c **** *  Clear status register of the component.
 725:.\Generated_Source\PSoC5/SPIM_2.c **** *
 726:.\Generated_Source\PSoC5/SPIM_2.c **** *******************************************************************************/
 727:.\Generated_Source\PSoC5/SPIM_2.c **** uint8  SPIM_2_GetTxBufferSize(void) 
 728:.\Generated_Source\PSoC5/SPIM_2.c **** {
 378              		.loc 1 728 0
 379              		.cfi_startproc
 380              		@ args = 0, pretend = 0, frame = 0
 381              		@ frame_needed = 0, uses_anonymous_args = 0
 382              		@ link register save eliminated.
 729:.\Generated_Source\PSoC5/SPIM_2.c ****     uint8 size;
 730:.\Generated_Source\PSoC5/SPIM_2.c **** 
 731:.\Generated_Source\PSoC5/SPIM_2.c ****     #if(SPIM_2_TX_SOFTWARE_BUF_ENABLED)
 732:.\Generated_Source\PSoC5/SPIM_2.c ****         /* Disable TX interrupt to protect global veriables */
 733:.\Generated_Source\PSoC5/SPIM_2.c ****         SPIM_2_DisableTxInt();
 734:.\Generated_Source\PSoC5/SPIM_2.c **** 
 735:.\Generated_Source\PSoC5/SPIM_2.c ****         if(SPIM_2_txBufferRead == SPIM_2_txBufferWrite)
 736:.\Generated_Source\PSoC5/SPIM_2.c ****         {
 737:.\Generated_Source\PSoC5/SPIM_2.c ****             size = 0u;
 738:.\Generated_Source\PSoC5/SPIM_2.c ****         }
 739:.\Generated_Source\PSoC5/SPIM_2.c ****         else if(SPIM_2_txBufferRead < SPIM_2_txBufferWrite)
 740:.\Generated_Source\PSoC5/SPIM_2.c ****         {
 741:.\Generated_Source\PSoC5/SPIM_2.c ****             size = (SPIM_2_txBufferWrite - SPIM_2_txBufferRead);
 742:.\Generated_Source\PSoC5/SPIM_2.c ****         }
 743:.\Generated_Source\PSoC5/SPIM_2.c ****         else
 744:.\Generated_Source\PSoC5/SPIM_2.c ****         {
 745:.\Generated_Source\PSoC5/SPIM_2.c ****             size = (SPIM_2_TX_BUFFER_SIZE - SPIM_2_txBufferRead) + SPIM_2_txBufferWrite;
 746:.\Generated_Source\PSoC5/SPIM_2.c ****         }
 747:.\Generated_Source\PSoC5/SPIM_2.c **** 
 748:.\Generated_Source\PSoC5/SPIM_2.c ****         SPIM_2_EnableTxInt();
 749:.\Generated_Source\PSoC5/SPIM_2.c **** 
 750:.\Generated_Source\PSoC5/SPIM_2.c ****     #else
 751:.\Generated_Source\PSoC5/SPIM_2.c **** 
 752:.\Generated_Source\PSoC5/SPIM_2.c ****         size = SPIM_2_TX_STATUS_REG;
 383              		.loc 1 752 0
 384 0000 074B     		ldr	r3, .L41
 385 0002 1B78     		ldrb	r3, [r3]	@ zero_extendqisi2
 386 0004 DBB2     		uxtb	r3, r3
 387              	.LVL13:
 753:.\Generated_Source\PSoC5/SPIM_2.c **** 
ARM GAS  C:\Users\ericz\AppData\Local\Temp\ccgTCGw3.s 			page 21


 754:.\Generated_Source\PSoC5/SPIM_2.c ****         if(0u != (size & SPIM_2_STS_TX_FIFO_EMPTY))
 388              		.loc 1 754 0
 389 0006 13F0020F 		tst	r3, #2
 390 000a 04D1     		bne	.L39
 755:.\Generated_Source\PSoC5/SPIM_2.c ****         {
 756:.\Generated_Source\PSoC5/SPIM_2.c ****             size = 0u;
 757:.\Generated_Source\PSoC5/SPIM_2.c ****         }
 758:.\Generated_Source\PSoC5/SPIM_2.c ****         else if(0u != (size & SPIM_2_STS_TX_FIFO_NOT_FULL))
 391              		.loc 1 758 0
 392 000c 13F0040F 		tst	r3, #4
 393 0010 03D0     		beq	.L40
 759:.\Generated_Source\PSoC5/SPIM_2.c ****         {
 760:.\Generated_Source\PSoC5/SPIM_2.c ****             size = 1u;
 394              		.loc 1 760 0
 395 0012 0120     		movs	r0, #1
 396 0014 7047     		bx	lr
 397              	.L39:
 756:.\Generated_Source\PSoC5/SPIM_2.c ****         }
 398              		.loc 1 756 0
 399 0016 0020     		movs	r0, #0
 400 0018 7047     		bx	lr
 401              	.L40:
 761:.\Generated_Source\PSoC5/SPIM_2.c ****         }
 762:.\Generated_Source\PSoC5/SPIM_2.c ****         else
 763:.\Generated_Source\PSoC5/SPIM_2.c ****         {
 764:.\Generated_Source\PSoC5/SPIM_2.c ****             size = SPIM_2_FIFO_SIZE;
 402              		.loc 1 764 0
 403 001a 0420     		movs	r0, #4
 404              	.LVL14:
 765:.\Generated_Source\PSoC5/SPIM_2.c ****         }
 766:.\Generated_Source\PSoC5/SPIM_2.c **** 
 767:.\Generated_Source\PSoC5/SPIM_2.c ****     #endif /* (SPIM_2_TX_SOFTWARE_BUF_ENABLED) */
 768:.\Generated_Source\PSoC5/SPIM_2.c **** 
 769:.\Generated_Source\PSoC5/SPIM_2.c ****     return(size);
 770:.\Generated_Source\PSoC5/SPIM_2.c **** }
 405              		.loc 1 770 0
 406 001c 7047     		bx	lr
 407              	.L42:
 408 001e 00BF     		.align	2
 409              	.L41:
 410 0020 68640040 		.word	1073767528
 411              		.cfi_endproc
 412              	.LFE15:
 413              		.size	SPIM_2_GetTxBufferSize, .-SPIM_2_GetTxBufferSize
 414              		.section	.text.SPIM_2_ClearRxBuffer,"ax",%progbits
 415              		.align	2
 416              		.global	SPIM_2_ClearRxBuffer
 417              		.thumb
 418              		.thumb_func
 419              		.type	SPIM_2_ClearRxBuffer, %function
 420              	SPIM_2_ClearRxBuffer:
 421              	.LFB16:
 771:.\Generated_Source\PSoC5/SPIM_2.c **** 
 772:.\Generated_Source\PSoC5/SPIM_2.c **** 
 773:.\Generated_Source\PSoC5/SPIM_2.c **** /*******************************************************************************
 774:.\Generated_Source\PSoC5/SPIM_2.c **** * Function Name: SPIM_2_ClearRxBuffer
 775:.\Generated_Source\PSoC5/SPIM_2.c **** ********************************************************************************
ARM GAS  C:\Users\ericz\AppData\Local\Temp\ccgTCGw3.s 			page 22


 776:.\Generated_Source\PSoC5/SPIM_2.c **** *
 777:.\Generated_Source\PSoC5/SPIM_2.c **** * Summary:
 778:.\Generated_Source\PSoC5/SPIM_2.c **** *  Clear the RX RAM buffer by setting the read and write pointers both to zero.
 779:.\Generated_Source\PSoC5/SPIM_2.c **** *
 780:.\Generated_Source\PSoC5/SPIM_2.c **** * Parameters:
 781:.\Generated_Source\PSoC5/SPIM_2.c **** *  None.
 782:.\Generated_Source\PSoC5/SPIM_2.c **** *
 783:.\Generated_Source\PSoC5/SPIM_2.c **** * Return:
 784:.\Generated_Source\PSoC5/SPIM_2.c **** *  None.
 785:.\Generated_Source\PSoC5/SPIM_2.c **** *
 786:.\Generated_Source\PSoC5/SPIM_2.c **** * Global variables:
 787:.\Generated_Source\PSoC5/SPIM_2.c **** *  SPIM_2_rxBufferWrite - used for the account of the bytes which
 788:.\Generated_Source\PSoC5/SPIM_2.c **** *  have been written down in the RX software buffer, modified every function
 789:.\Generated_Source\PSoC5/SPIM_2.c **** *  call - resets to zero.
 790:.\Generated_Source\PSoC5/SPIM_2.c **** *  SPIM_2_rxBufferRead - used for the account of the bytes which
 791:.\Generated_Source\PSoC5/SPIM_2.c **** *  have been read from the RX software buffer, modified every function call -
 792:.\Generated_Source\PSoC5/SPIM_2.c **** *  resets to zero.
 793:.\Generated_Source\PSoC5/SPIM_2.c **** *
 794:.\Generated_Source\PSoC5/SPIM_2.c **** * Theory:
 795:.\Generated_Source\PSoC5/SPIM_2.c **** *  Setting the pointers to zero makes the system believe there is no data to
 796:.\Generated_Source\PSoC5/SPIM_2.c **** *  read and writing will resume at address 0 overwriting any data that may have
 797:.\Generated_Source\PSoC5/SPIM_2.c **** *  remained in the RAM.
 798:.\Generated_Source\PSoC5/SPIM_2.c **** *
 799:.\Generated_Source\PSoC5/SPIM_2.c **** * Side Effects:
 800:.\Generated_Source\PSoC5/SPIM_2.c **** *  Any received data not read from the RAM buffer will be lost when overwritten.
 801:.\Generated_Source\PSoC5/SPIM_2.c **** *
 802:.\Generated_Source\PSoC5/SPIM_2.c **** * Reentrant:
 803:.\Generated_Source\PSoC5/SPIM_2.c **** *  No.
 804:.\Generated_Source\PSoC5/SPIM_2.c **** *
 805:.\Generated_Source\PSoC5/SPIM_2.c **** *******************************************************************************/
 806:.\Generated_Source\PSoC5/SPIM_2.c **** void SPIM_2_ClearRxBuffer(void) 
 807:.\Generated_Source\PSoC5/SPIM_2.c **** {
 422              		.loc 1 807 0
 423              		.cfi_startproc
 424              		@ args = 0, pretend = 0, frame = 0
 425              		@ frame_needed = 0, uses_anonymous_args = 0
 426              		@ link register save eliminated.
 808:.\Generated_Source\PSoC5/SPIM_2.c ****     /* Clear Hardware RX FIFO */
 809:.\Generated_Source\PSoC5/SPIM_2.c ****     while(0u !=(SPIM_2_RX_STATUS_REG & SPIM_2_STS_RX_FIFO_NOT_EMPTY))
 427              		.loc 1 809 0
 428 0000 01E0     		b	.L44
 429              	.L45:
 810:.\Generated_Source\PSoC5/SPIM_2.c ****     {
 811:.\Generated_Source\PSoC5/SPIM_2.c ****         (void) CY_GET_REG8(SPIM_2_RXDATA_PTR);
 430              		.loc 1 811 0
 431 0002 044B     		ldr	r3, .L46
 432 0004 1B78     		ldrb	r3, [r3]	@ zero_extendqisi2
 433              	.L44:
 809:.\Generated_Source\PSoC5/SPIM_2.c ****     {
 434              		.loc 1 809 0
 435 0006 044B     		ldr	r3, .L46+4
 436 0008 1B78     		ldrb	r3, [r3]	@ zero_extendqisi2
 437 000a 13F0200F 		tst	r3, #32
 438 000e F8D1     		bne	.L45
 812:.\Generated_Source\PSoC5/SPIM_2.c ****     }
 813:.\Generated_Source\PSoC5/SPIM_2.c **** 
 814:.\Generated_Source\PSoC5/SPIM_2.c ****     #if(SPIM_2_RX_SOFTWARE_BUF_ENABLED)
ARM GAS  C:\Users\ericz\AppData\Local\Temp\ccgTCGw3.s 			page 23


 815:.\Generated_Source\PSoC5/SPIM_2.c ****         /* Disable RX interrupt to protect global veriables */
 816:.\Generated_Source\PSoC5/SPIM_2.c ****         SPIM_2_DisableRxInt();
 817:.\Generated_Source\PSoC5/SPIM_2.c **** 
 818:.\Generated_Source\PSoC5/SPIM_2.c ****         SPIM_2_rxBufferFull  = 0u;
 819:.\Generated_Source\PSoC5/SPIM_2.c ****         SPIM_2_rxBufferRead  = 0u;
 820:.\Generated_Source\PSoC5/SPIM_2.c ****         SPIM_2_rxBufferWrite = 0u;
 821:.\Generated_Source\PSoC5/SPIM_2.c **** 
 822:.\Generated_Source\PSoC5/SPIM_2.c ****         SPIM_2_EnableRxInt();
 823:.\Generated_Source\PSoC5/SPIM_2.c ****     #endif /* (SPIM_2_RX_SOFTWARE_BUF_ENABLED) */
 824:.\Generated_Source\PSoC5/SPIM_2.c **** }
 439              		.loc 1 824 0
 440 0010 7047     		bx	lr
 441              	.L47:
 442 0012 00BF     		.align	2
 443              	.L46:
 444 0014 5A650040 		.word	1073767770
 445 0018 6A650040 		.word	1073767786
 446              		.cfi_endproc
 447              	.LFE16:
 448              		.size	SPIM_2_ClearRxBuffer, .-SPIM_2_ClearRxBuffer
 449              		.section	.text.SPIM_2_ClearTxBuffer,"ax",%progbits
 450              		.align	2
 451              		.global	SPIM_2_ClearTxBuffer
 452              		.thumb
 453              		.thumb_func
 454              		.type	SPIM_2_ClearTxBuffer, %function
 455              	SPIM_2_ClearTxBuffer:
 456              	.LFB17:
 825:.\Generated_Source\PSoC5/SPIM_2.c **** 
 826:.\Generated_Source\PSoC5/SPIM_2.c **** 
 827:.\Generated_Source\PSoC5/SPIM_2.c **** /*******************************************************************************
 828:.\Generated_Source\PSoC5/SPIM_2.c **** * Function Name: SPIM_2_ClearTxBuffer
 829:.\Generated_Source\PSoC5/SPIM_2.c **** ********************************************************************************
 830:.\Generated_Source\PSoC5/SPIM_2.c **** *
 831:.\Generated_Source\PSoC5/SPIM_2.c **** * Summary:
 832:.\Generated_Source\PSoC5/SPIM_2.c **** *  Clear the TX RAM buffer by setting the read and write pointers both to zero.
 833:.\Generated_Source\PSoC5/SPIM_2.c **** *
 834:.\Generated_Source\PSoC5/SPIM_2.c **** * Parameters:
 835:.\Generated_Source\PSoC5/SPIM_2.c **** *  None.
 836:.\Generated_Source\PSoC5/SPIM_2.c **** *
 837:.\Generated_Source\PSoC5/SPIM_2.c **** * Return:
 838:.\Generated_Source\PSoC5/SPIM_2.c **** *  None.
 839:.\Generated_Source\PSoC5/SPIM_2.c **** *
 840:.\Generated_Source\PSoC5/SPIM_2.c **** * Global variables:
 841:.\Generated_Source\PSoC5/SPIM_2.c **** *  SPIM_2_txBufferWrite - used for the account of the bytes which
 842:.\Generated_Source\PSoC5/SPIM_2.c **** *  have been written down in the TX software buffer, modified every function
 843:.\Generated_Source\PSoC5/SPIM_2.c **** *  call - resets to zero.
 844:.\Generated_Source\PSoC5/SPIM_2.c **** *  SPIM_2_txBufferRead - used for the account of the bytes which
 845:.\Generated_Source\PSoC5/SPIM_2.c **** *  have been read from the TX software buffer, modified every function call -
 846:.\Generated_Source\PSoC5/SPIM_2.c **** *  resets to zero.
 847:.\Generated_Source\PSoC5/SPIM_2.c **** *
 848:.\Generated_Source\PSoC5/SPIM_2.c **** * Theory:
 849:.\Generated_Source\PSoC5/SPIM_2.c **** *  Setting the pointers to zero makes the system believe there is no data to
 850:.\Generated_Source\PSoC5/SPIM_2.c **** *  read and writing will resume at address 0 overwriting any data that may have
 851:.\Generated_Source\PSoC5/SPIM_2.c **** *  remained in the RAM.
 852:.\Generated_Source\PSoC5/SPIM_2.c **** *
 853:.\Generated_Source\PSoC5/SPIM_2.c **** * Side Effects:
ARM GAS  C:\Users\ericz\AppData\Local\Temp\ccgTCGw3.s 			page 24


 854:.\Generated_Source\PSoC5/SPIM_2.c **** *  Any data not yet transmitted from the RAM buffer will be lost when
 855:.\Generated_Source\PSoC5/SPIM_2.c **** *  overwritten.
 856:.\Generated_Source\PSoC5/SPIM_2.c **** *
 857:.\Generated_Source\PSoC5/SPIM_2.c **** * Reentrant:
 858:.\Generated_Source\PSoC5/SPIM_2.c **** *  No.
 859:.\Generated_Source\PSoC5/SPIM_2.c **** *
 860:.\Generated_Source\PSoC5/SPIM_2.c **** *******************************************************************************/
 861:.\Generated_Source\PSoC5/SPIM_2.c **** void SPIM_2_ClearTxBuffer(void) 
 862:.\Generated_Source\PSoC5/SPIM_2.c **** {
 457              		.loc 1 862 0
 458              		.cfi_startproc
 459              		@ args = 0, pretend = 0, frame = 0
 460              		@ frame_needed = 0, uses_anonymous_args = 0
 461 0000 08B5     		push	{r3, lr}
 462              		.cfi_def_cfa_offset 8
 463              		.cfi_offset 3, -8
 464              		.cfi_offset 14, -4
 863:.\Generated_Source\PSoC5/SPIM_2.c ****     uint8 enableInterrupts;
 864:.\Generated_Source\PSoC5/SPIM_2.c **** 
 865:.\Generated_Source\PSoC5/SPIM_2.c ****     enableInterrupts = CyEnterCriticalSection();
 465              		.loc 1 865 0
 466 0002 FFF7FEFF 		bl	CyEnterCriticalSection
 467              	.LVL15:
 866:.\Generated_Source\PSoC5/SPIM_2.c ****     /* Clear TX FIFO */
 867:.\Generated_Source\PSoC5/SPIM_2.c ****     SPIM_2_AUX_CONTROL_DP0_REG |= ((uint8)  SPIM_2_TX_FIFO_CLR);
 468              		.loc 1 867 0
 469 0006 064B     		ldr	r3, .L50
 470 0008 1A78     		ldrb	r2, [r3]	@ zero_extendqisi2
 471 000a 42F00102 		orr	r2, r2, #1
 472 000e 1A70     		strb	r2, [r3]
 868:.\Generated_Source\PSoC5/SPIM_2.c ****     SPIM_2_AUX_CONTROL_DP0_REG &= ((uint8) ~SPIM_2_TX_FIFO_CLR);
 473              		.loc 1 868 0
 474 0010 1A78     		ldrb	r2, [r3]	@ zero_extendqisi2
 475 0012 02F0FE02 		and	r2, r2, #254
 476 0016 1A70     		strb	r2, [r3]
 869:.\Generated_Source\PSoC5/SPIM_2.c **** 
 870:.\Generated_Source\PSoC5/SPIM_2.c ****     #if(SPIM_2_USE_SECOND_DATAPATH)
 871:.\Generated_Source\PSoC5/SPIM_2.c ****         /* Clear TX FIFO for 2nd Datapath */
 872:.\Generated_Source\PSoC5/SPIM_2.c ****         SPIM_2_AUX_CONTROL_DP1_REG |= ((uint8)  SPIM_2_TX_FIFO_CLR);
 873:.\Generated_Source\PSoC5/SPIM_2.c ****         SPIM_2_AUX_CONTROL_DP1_REG &= ((uint8) ~SPIM_2_TX_FIFO_CLR);
 874:.\Generated_Source\PSoC5/SPIM_2.c ****     #endif /* (SPIM_2_USE_SECOND_DATAPATH) */
 875:.\Generated_Source\PSoC5/SPIM_2.c ****     CyExitCriticalSection(enableInterrupts);
 477              		.loc 1 875 0
 478 0018 FFF7FEFF 		bl	CyExitCriticalSection
 479              	.LVL16:
 480 001c 08BD     		pop	{r3, pc}
 481              	.L51:
 482 001e 00BF     		.align	2
 483              	.L50:
 484 0020 9A650040 		.word	1073767834
 485              		.cfi_endproc
 486              	.LFE17:
 487              		.size	SPIM_2_ClearTxBuffer, .-SPIM_2_ClearTxBuffer
 488              		.section	.text.SPIM_2_PutArray,"ax",%progbits
 489              		.align	2
 490              		.global	SPIM_2_PutArray
 491              		.thumb
ARM GAS  C:\Users\ericz\AppData\Local\Temp\ccgTCGw3.s 			page 25


 492              		.thumb_func
 493              		.type	SPIM_2_PutArray, %function
 494              	SPIM_2_PutArray:
 495              	.LFB18:
 876:.\Generated_Source\PSoC5/SPIM_2.c **** 
 877:.\Generated_Source\PSoC5/SPIM_2.c ****     #if(SPIM_2_TX_SOFTWARE_BUF_ENABLED)
 878:.\Generated_Source\PSoC5/SPIM_2.c ****         /* Disable TX interrupt to protect global veriables */
 879:.\Generated_Source\PSoC5/SPIM_2.c ****         SPIM_2_DisableTxInt();
 880:.\Generated_Source\PSoC5/SPIM_2.c **** 
 881:.\Generated_Source\PSoC5/SPIM_2.c ****         SPIM_2_txBufferFull  = 0u;
 882:.\Generated_Source\PSoC5/SPIM_2.c ****         SPIM_2_txBufferRead  = 0u;
 883:.\Generated_Source\PSoC5/SPIM_2.c ****         SPIM_2_txBufferWrite = 0u;
 884:.\Generated_Source\PSoC5/SPIM_2.c **** 
 885:.\Generated_Source\PSoC5/SPIM_2.c ****         /* Buffer is EMPTY: disable TX FIFO NOT FULL interrupt */
 886:.\Generated_Source\PSoC5/SPIM_2.c ****         SPIM_2_TX_STATUS_MASK_REG &= ((uint8) ~SPIM_2_STS_TX_FIFO_NOT_FULL);
 887:.\Generated_Source\PSoC5/SPIM_2.c **** 
 888:.\Generated_Source\PSoC5/SPIM_2.c ****         SPIM_2_EnableTxInt();
 889:.\Generated_Source\PSoC5/SPIM_2.c ****     #endif /* (SPIM_2_TX_SOFTWARE_BUF_ENABLED) */
 890:.\Generated_Source\PSoC5/SPIM_2.c **** }
 891:.\Generated_Source\PSoC5/SPIM_2.c **** 
 892:.\Generated_Source\PSoC5/SPIM_2.c **** 
 893:.\Generated_Source\PSoC5/SPIM_2.c **** #if(0u != SPIM_2_BIDIRECTIONAL_MODE)
 894:.\Generated_Source\PSoC5/SPIM_2.c ****     /*******************************************************************************
 895:.\Generated_Source\PSoC5/SPIM_2.c ****     * Function Name: SPIM_2_TxEnable
 896:.\Generated_Source\PSoC5/SPIM_2.c ****     ********************************************************************************
 897:.\Generated_Source\PSoC5/SPIM_2.c ****     *
 898:.\Generated_Source\PSoC5/SPIM_2.c ****     * Summary:
 899:.\Generated_Source\PSoC5/SPIM_2.c ****     *  If the SPI master is configured to use a single bi-directional pin then this
 900:.\Generated_Source\PSoC5/SPIM_2.c ****     *  will set the bi-directional pin to transmit.
 901:.\Generated_Source\PSoC5/SPIM_2.c ****     *
 902:.\Generated_Source\PSoC5/SPIM_2.c ****     * Parameters:
 903:.\Generated_Source\PSoC5/SPIM_2.c ****     *  None.
 904:.\Generated_Source\PSoC5/SPIM_2.c ****     *
 905:.\Generated_Source\PSoC5/SPIM_2.c ****     * Return:
 906:.\Generated_Source\PSoC5/SPIM_2.c ****     *  None.
 907:.\Generated_Source\PSoC5/SPIM_2.c ****     *
 908:.\Generated_Source\PSoC5/SPIM_2.c ****     *******************************************************************************/
 909:.\Generated_Source\PSoC5/SPIM_2.c ****     void SPIM_2_TxEnable(void) 
 910:.\Generated_Source\PSoC5/SPIM_2.c ****     {
 911:.\Generated_Source\PSoC5/SPIM_2.c ****         SPIM_2_CONTROL_REG |= SPIM_2_CTRL_TX_SIGNAL_EN;
 912:.\Generated_Source\PSoC5/SPIM_2.c ****     }
 913:.\Generated_Source\PSoC5/SPIM_2.c **** 
 914:.\Generated_Source\PSoC5/SPIM_2.c **** 
 915:.\Generated_Source\PSoC5/SPIM_2.c ****     /*******************************************************************************
 916:.\Generated_Source\PSoC5/SPIM_2.c ****     * Function Name: SPIM_2_TxDisable
 917:.\Generated_Source\PSoC5/SPIM_2.c ****     ********************************************************************************
 918:.\Generated_Source\PSoC5/SPIM_2.c ****     *
 919:.\Generated_Source\PSoC5/SPIM_2.c ****     * Summary:
 920:.\Generated_Source\PSoC5/SPIM_2.c ****     *  If the SPI master is configured to use a single bi-directional pin then this
 921:.\Generated_Source\PSoC5/SPIM_2.c ****     *  will set the bi-directional pin to receive.
 922:.\Generated_Source\PSoC5/SPIM_2.c ****     *
 923:.\Generated_Source\PSoC5/SPIM_2.c ****     * Parameters:
 924:.\Generated_Source\PSoC5/SPIM_2.c ****     *  None.
 925:.\Generated_Source\PSoC5/SPIM_2.c ****     *
 926:.\Generated_Source\PSoC5/SPIM_2.c ****     * Return:
 927:.\Generated_Source\PSoC5/SPIM_2.c ****     *  None.
 928:.\Generated_Source\PSoC5/SPIM_2.c ****     *
ARM GAS  C:\Users\ericz\AppData\Local\Temp\ccgTCGw3.s 			page 26


 929:.\Generated_Source\PSoC5/SPIM_2.c ****     *******************************************************************************/
 930:.\Generated_Source\PSoC5/SPIM_2.c ****     void SPIM_2_TxDisable(void) 
 931:.\Generated_Source\PSoC5/SPIM_2.c ****     {
 932:.\Generated_Source\PSoC5/SPIM_2.c ****         SPIM_2_CONTROL_REG &= ((uint8) ~SPIM_2_CTRL_TX_SIGNAL_EN);
 933:.\Generated_Source\PSoC5/SPIM_2.c ****     }
 934:.\Generated_Source\PSoC5/SPIM_2.c **** 
 935:.\Generated_Source\PSoC5/SPIM_2.c **** #endif /* (0u != SPIM_2_BIDIRECTIONAL_MODE) */
 936:.\Generated_Source\PSoC5/SPIM_2.c **** 
 937:.\Generated_Source\PSoC5/SPIM_2.c **** 
 938:.\Generated_Source\PSoC5/SPIM_2.c **** /*******************************************************************************
 939:.\Generated_Source\PSoC5/SPIM_2.c **** * Function Name: SPIM_2_PutArray
 940:.\Generated_Source\PSoC5/SPIM_2.c **** ********************************************************************************
 941:.\Generated_Source\PSoC5/SPIM_2.c **** *
 942:.\Generated_Source\PSoC5/SPIM_2.c **** * Summary:
 943:.\Generated_Source\PSoC5/SPIM_2.c **** *  Write available data from ROM/RAM to the TX buffer while space is available
 944:.\Generated_Source\PSoC5/SPIM_2.c **** *  in the TX buffer. Keep trying until all data is passed to the TX buffer.
 945:.\Generated_Source\PSoC5/SPIM_2.c **** *
 946:.\Generated_Source\PSoC5/SPIM_2.c **** * Parameters:
 947:.\Generated_Source\PSoC5/SPIM_2.c **** *  *buffer: Pointer to the location in RAM containing the data to send
 948:.\Generated_Source\PSoC5/SPIM_2.c **** *  byteCount: The number of bytes to move to the transmit buffer.
 949:.\Generated_Source\PSoC5/SPIM_2.c **** *
 950:.\Generated_Source\PSoC5/SPIM_2.c **** * Return:
 951:.\Generated_Source\PSoC5/SPIM_2.c **** *  None.
 952:.\Generated_Source\PSoC5/SPIM_2.c **** *
 953:.\Generated_Source\PSoC5/SPIM_2.c **** * Side Effects:
 954:.\Generated_Source\PSoC5/SPIM_2.c **** *  Will stay in this routine until all data has been sent.  May get locked in
 955:.\Generated_Source\PSoC5/SPIM_2.c **** *  this loop if data is not being initiated by the master if there is not
 956:.\Generated_Source\PSoC5/SPIM_2.c **** *  enough room in the TX FIFO.
 957:.\Generated_Source\PSoC5/SPIM_2.c **** *
 958:.\Generated_Source\PSoC5/SPIM_2.c **** * Reentrant:
 959:.\Generated_Source\PSoC5/SPIM_2.c **** *  No.
 960:.\Generated_Source\PSoC5/SPIM_2.c **** *
 961:.\Generated_Source\PSoC5/SPIM_2.c **** *******************************************************************************/
 962:.\Generated_Source\PSoC5/SPIM_2.c **** void SPIM_2_PutArray(const uint8 buffer[], uint8 byteCount)
 963:.\Generated_Source\PSoC5/SPIM_2.c ****                                                                           
 964:.\Generated_Source\PSoC5/SPIM_2.c **** {
 496              		.loc 1 964 0
 497              		.cfi_startproc
 498              		@ args = 0, pretend = 0, frame = 0
 499              		@ frame_needed = 0, uses_anonymous_args = 0
 500              	.LVL17:
 501 0000 70B5     		push	{r4, r5, r6, lr}
 502              		.cfi_def_cfa_offset 16
 503              		.cfi_offset 4, -16
 504              		.cfi_offset 5, -12
 505              		.cfi_offset 6, -8
 506              		.cfi_offset 14, -4
 507 0002 0646     		mov	r6, r0
 508 0004 0C46     		mov	r4, r1
 509              	.LVL18:
 965:.\Generated_Source\PSoC5/SPIM_2.c ****     uint8 bufIndex;
 966:.\Generated_Source\PSoC5/SPIM_2.c **** 
 967:.\Generated_Source\PSoC5/SPIM_2.c ****     bufIndex = 0u;
 510              		.loc 1 967 0
 511 0006 0025     		movs	r5, #0
 968:.\Generated_Source\PSoC5/SPIM_2.c **** 
 969:.\Generated_Source\PSoC5/SPIM_2.c ****     while(byteCount > 0u)
ARM GAS  C:\Users\ericz\AppData\Local\Temp\ccgTCGw3.s 			page 27


 512              		.loc 1 969 0
 513 0008 06E0     		b	.L53
 514              	.LVL19:
 515              	.L54:
 970:.\Generated_Source\PSoC5/SPIM_2.c ****     {
 971:.\Generated_Source\PSoC5/SPIM_2.c ****         SPIM_2_WriteTxData(buffer[bufIndex]);
 516              		.loc 1 971 0
 517 000a 705D     		ldrb	r0, [r6, r5]	@ zero_extendqisi2
 518 000c FFF7FEFF 		bl	SPIM_2_WriteTxData
 519              	.LVL20:
 972:.\Generated_Source\PSoC5/SPIM_2.c ****         bufIndex++;
 520              		.loc 1 972 0
 521 0010 0135     		adds	r5, r5, #1
 522              	.LVL21:
 523 0012 EDB2     		uxtb	r5, r5
 524              	.LVL22:
 973:.\Generated_Source\PSoC5/SPIM_2.c ****         byteCount--;
 525              		.loc 1 973 0
 526 0014 013C     		subs	r4, r4, #1
 527              	.LVL23:
 528 0016 E4B2     		uxtb	r4, r4
 529              	.LVL24:
 530              	.L53:
 969:.\Generated_Source\PSoC5/SPIM_2.c ****     {
 531              		.loc 1 969 0
 532 0018 002C     		cmp	r4, #0
 533 001a F6D1     		bne	.L54
 974:.\Generated_Source\PSoC5/SPIM_2.c ****     }
 975:.\Generated_Source\PSoC5/SPIM_2.c **** }
 534              		.loc 1 975 0
 535 001c 70BD     		pop	{r4, r5, r6, pc}
 536              		.cfi_endproc
 537              	.LFE18:
 538              		.size	SPIM_2_PutArray, .-SPIM_2_PutArray
 539 001e 00BF     		.section	.text.SPIM_2_ClearFIFO,"ax",%progbits
 540              		.align	2
 541              		.global	SPIM_2_ClearFIFO
 542              		.thumb
 543              		.thumb_func
 544              		.type	SPIM_2_ClearFIFO, %function
 545              	SPIM_2_ClearFIFO:
 546              	.LFB19:
 976:.\Generated_Source\PSoC5/SPIM_2.c **** 
 977:.\Generated_Source\PSoC5/SPIM_2.c **** 
 978:.\Generated_Source\PSoC5/SPIM_2.c **** /*******************************************************************************
 979:.\Generated_Source\PSoC5/SPIM_2.c **** * Function Name: SPIM_2_ClearFIFO
 980:.\Generated_Source\PSoC5/SPIM_2.c **** ********************************************************************************
 981:.\Generated_Source\PSoC5/SPIM_2.c **** *
 982:.\Generated_Source\PSoC5/SPIM_2.c **** * Summary:
 983:.\Generated_Source\PSoC5/SPIM_2.c **** *  Clear the RX and TX FIFO's of all data for a fresh start.
 984:.\Generated_Source\PSoC5/SPIM_2.c **** *
 985:.\Generated_Source\PSoC5/SPIM_2.c **** * Parameters:
 986:.\Generated_Source\PSoC5/SPIM_2.c **** *  None.
 987:.\Generated_Source\PSoC5/SPIM_2.c **** *
 988:.\Generated_Source\PSoC5/SPIM_2.c **** * Return:
 989:.\Generated_Source\PSoC5/SPIM_2.c **** *  None.
 990:.\Generated_Source\PSoC5/SPIM_2.c **** *
ARM GAS  C:\Users\ericz\AppData\Local\Temp\ccgTCGw3.s 			page 28


 991:.\Generated_Source\PSoC5/SPIM_2.c **** * Side Effects:
 992:.\Generated_Source\PSoC5/SPIM_2.c **** *  Clear status register of the component.
 993:.\Generated_Source\PSoC5/SPIM_2.c **** *
 994:.\Generated_Source\PSoC5/SPIM_2.c **** *******************************************************************************/
 995:.\Generated_Source\PSoC5/SPIM_2.c **** void SPIM_2_ClearFIFO(void) 
 996:.\Generated_Source\PSoC5/SPIM_2.c **** {
 547              		.loc 1 996 0
 548              		.cfi_startproc
 549              		@ args = 0, pretend = 0, frame = 0
 550              		@ frame_needed = 0, uses_anonymous_args = 0
 551 0000 08B5     		push	{r3, lr}
 552              		.cfi_def_cfa_offset 8
 553              		.cfi_offset 3, -8
 554              		.cfi_offset 14, -4
 997:.\Generated_Source\PSoC5/SPIM_2.c ****     uint8 enableInterrupts;
 998:.\Generated_Source\PSoC5/SPIM_2.c **** 
 999:.\Generated_Source\PSoC5/SPIM_2.c ****     /* Clear Hardware RX FIFO */
1000:.\Generated_Source\PSoC5/SPIM_2.c ****     while(0u !=(SPIM_2_RX_STATUS_REG & SPIM_2_STS_RX_FIFO_NOT_EMPTY))
 555              		.loc 1 1000 0
 556 0002 01E0     		b	.L57
 557              	.L58:
1001:.\Generated_Source\PSoC5/SPIM_2.c ****     {
1002:.\Generated_Source\PSoC5/SPIM_2.c ****         (void) CY_GET_REG8(SPIM_2_RXDATA_PTR);
 558              		.loc 1 1002 0
 559 0004 0A4B     		ldr	r3, .L60
 560 0006 1B78     		ldrb	r3, [r3]	@ zero_extendqisi2
 561              	.L57:
1000:.\Generated_Source\PSoC5/SPIM_2.c ****     {
 562              		.loc 1 1000 0
 563 0008 0A4B     		ldr	r3, .L60+4
 564 000a 1B78     		ldrb	r3, [r3]	@ zero_extendqisi2
 565 000c 13F0200F 		tst	r3, #32
 566 0010 F8D1     		bne	.L58
1003:.\Generated_Source\PSoC5/SPIM_2.c ****     }
1004:.\Generated_Source\PSoC5/SPIM_2.c **** 
1005:.\Generated_Source\PSoC5/SPIM_2.c ****     enableInterrupts = CyEnterCriticalSection();
 567              		.loc 1 1005 0
 568 0012 FFF7FEFF 		bl	CyEnterCriticalSection
 569              	.LVL25:
1006:.\Generated_Source\PSoC5/SPIM_2.c ****     /* Clear TX FIFO */
1007:.\Generated_Source\PSoC5/SPIM_2.c ****     SPIM_2_AUX_CONTROL_DP0_REG |= ((uint8)  SPIM_2_TX_FIFO_CLR);
 570              		.loc 1 1007 0
 571 0016 084B     		ldr	r3, .L60+8
 572 0018 1A78     		ldrb	r2, [r3]	@ zero_extendqisi2
 573 001a 42F00102 		orr	r2, r2, #1
 574 001e 1A70     		strb	r2, [r3]
1008:.\Generated_Source\PSoC5/SPIM_2.c ****     SPIM_2_AUX_CONTROL_DP0_REG &= ((uint8) ~SPIM_2_TX_FIFO_CLR);
 575              		.loc 1 1008 0
 576 0020 1A78     		ldrb	r2, [r3]	@ zero_extendqisi2
 577 0022 02F0FE02 		and	r2, r2, #254
 578 0026 1A70     		strb	r2, [r3]
1009:.\Generated_Source\PSoC5/SPIM_2.c **** 
1010:.\Generated_Source\PSoC5/SPIM_2.c ****     #if(SPIM_2_USE_SECOND_DATAPATH)
1011:.\Generated_Source\PSoC5/SPIM_2.c ****         /* Clear TX FIFO for 2nd Datapath */
1012:.\Generated_Source\PSoC5/SPIM_2.c ****         SPIM_2_AUX_CONTROL_DP1_REG |= ((uint8)  SPIM_2_TX_FIFO_CLR);
1013:.\Generated_Source\PSoC5/SPIM_2.c ****         SPIM_2_AUX_CONTROL_DP1_REG &= ((uint8) ~SPIM_2_TX_FIFO_CLR);
1014:.\Generated_Source\PSoC5/SPIM_2.c ****     #endif /* (SPIM_2_USE_SECOND_DATAPATH) */
ARM GAS  C:\Users\ericz\AppData\Local\Temp\ccgTCGw3.s 			page 29


1015:.\Generated_Source\PSoC5/SPIM_2.c ****     CyExitCriticalSection(enableInterrupts);
 579              		.loc 1 1015 0
 580 0028 FFF7FEFF 		bl	CyExitCriticalSection
 581              	.LVL26:
 582 002c 08BD     		pop	{r3, pc}
 583              	.L61:
 584 002e 00BF     		.align	2
 585              	.L60:
 586 0030 5A650040 		.word	1073767770
 587 0034 6A650040 		.word	1073767786
 588 0038 9A650040 		.word	1073767834
 589              		.cfi_endproc
 590              	.LFE19:
 591              		.size	SPIM_2_ClearFIFO, .-SPIM_2_ClearFIFO
 592              		.section	.text.SPIM_2_Init,"ax",%progbits
 593              		.align	2
 594              		.global	SPIM_2_Init
 595              		.thumb
 596              		.thumb_func
 597              		.type	SPIM_2_Init, %function
 598              	SPIM_2_Init:
 599              	.LFB0:
  64:.\Generated_Source\PSoC5/SPIM_2.c ****     /* Initialize the Bit counter */
 600              		.loc 1 64 0
 601              		.cfi_startproc
 602              		@ args = 0, pretend = 0, frame = 0
 603              		@ frame_needed = 0, uses_anonymous_args = 0
 604 0000 08B5     		push	{r3, lr}
 605              		.cfi_def_cfa_offset 8
 606              		.cfi_offset 3, -8
 607              		.cfi_offset 14, -4
  66:.\Generated_Source\PSoC5/SPIM_2.c **** 
 608              		.loc 1 66 0
 609 0002 0F22     		movs	r2, #15
 610 0004 074B     		ldr	r3, .L64
 611 0006 1A70     		strb	r2, [r3]
  83:.\Generated_Source\PSoC5/SPIM_2.c **** 
 612              		.loc 1 83 0
 613 0008 FFF7FEFF 		bl	SPIM_2_ClearFIFO
 614              	.LVL27:
  97:.\Generated_Source\PSoC5/SPIM_2.c ****     (void) SPIM_2_ReadRxStatus(); /* Clear Rx status and swStatusRx */
 615              		.loc 1 97 0
 616 000c FFF7FEFF 		bl	SPIM_2_ReadTxStatus
 617              	.LVL28:
  98:.\Generated_Source\PSoC5/SPIM_2.c **** 
 618              		.loc 1 98 0
 619 0010 FFF7FEFF 		bl	SPIM_2_ReadRxStatus
 620              	.LVL29:
 101:.\Generated_Source\PSoC5/SPIM_2.c ****     SPIM_2_RX_STATUS_MASK_REG = SPIM_2_RX_INIT_INTERRUPTS_MASK;
 621              		.loc 1 101 0
 622 0014 0422     		movs	r2, #4
 623 0016 044B     		ldr	r3, .L64+4
 624 0018 1A70     		strb	r2, [r3]
 102:.\Generated_Source\PSoC5/SPIM_2.c **** }
 625              		.loc 1 102 0
 626 001a 0022     		movs	r2, #0
 627 001c 03F58173 		add	r3, r3, #258
ARM GAS  C:\Users\ericz\AppData\Local\Temp\ccgTCGw3.s 			page 30


 628 0020 1A70     		strb	r2, [r3]
 629 0022 08BD     		pop	{r3, pc}
 630              	.L65:
 631              		.align	2
 632              	.L64:
 633 0024 89650040 		.word	1073767817
 634 0028 88640040 		.word	1073767560
 635              		.cfi_endproc
 636              	.LFE0:
 637              		.size	SPIM_2_Init, .-SPIM_2_Init
 638              		.section	.text.SPIM_2_Start,"ax",%progbits
 639              		.align	2
 640              		.global	SPIM_2_Start
 641              		.thumb
 642              		.thumb_func
 643              		.type	SPIM_2_Start, %function
 644              	SPIM_2_Start:
 645              	.LFB2:
 164:.\Generated_Source\PSoC5/SPIM_2.c ****     if(0u == SPIM_2_initVar)
 646              		.loc 1 164 0
 647              		.cfi_startproc
 648              		@ args = 0, pretend = 0, frame = 0
 649              		@ frame_needed = 0, uses_anonymous_args = 0
 650 0000 08B5     		push	{r3, lr}
 651              		.cfi_def_cfa_offset 8
 652              		.cfi_offset 3, -8
 653              		.cfi_offset 14, -4
 165:.\Generated_Source\PSoC5/SPIM_2.c ****     {
 654              		.loc 1 165 0
 655 0002 054B     		ldr	r3, .L69
 656 0004 1B78     		ldrb	r3, [r3]	@ zero_extendqisi2
 657 0006 23B9     		cbnz	r3, .L67
 167:.\Generated_Source\PSoC5/SPIM_2.c ****         SPIM_2_initVar = 1u;
 658              		.loc 1 167 0
 659 0008 FFF7FEFF 		bl	SPIM_2_Init
 660              	.LVL30:
 168:.\Generated_Source\PSoC5/SPIM_2.c ****     }
 661              		.loc 1 168 0
 662 000c 0122     		movs	r2, #1
 663 000e 024B     		ldr	r3, .L69
 664 0010 1A70     		strb	r2, [r3]
 665              	.L67:
 171:.\Generated_Source\PSoC5/SPIM_2.c **** }
 666              		.loc 1 171 0
 667 0012 FFF7FEFF 		bl	SPIM_2_Enable
 668              	.LVL31:
 669 0016 08BD     		pop	{r3, pc}
 670              	.L70:
 671              		.align	2
 672              	.L69:
 673 0018 00000000 		.word	.LANCHOR0
 674              		.cfi_endproc
 675              	.LFE2:
 676              		.size	SPIM_2_Start, .-SPIM_2_Start
 677              		.section	.text.SPIM_2_EnableInt,"ax",%progbits
 678              		.align	2
 679              		.global	SPIM_2_EnableInt
ARM GAS  C:\Users\ericz\AppData\Local\Temp\ccgTCGw3.s 			page 31


 680              		.thumb
 681              		.thumb_func
 682              		.type	SPIM_2_EnableInt, %function
 683              	SPIM_2_EnableInt:
 684              	.LFB20:
1016:.\Generated_Source\PSoC5/SPIM_2.c **** }
1017:.\Generated_Source\PSoC5/SPIM_2.c **** 
1018:.\Generated_Source\PSoC5/SPIM_2.c **** 
1019:.\Generated_Source\PSoC5/SPIM_2.c **** /* Following functions are for version Compatibility, they are obsolete.
1020:.\Generated_Source\PSoC5/SPIM_2.c **** *  Please do not use it in new projects.
1021:.\Generated_Source\PSoC5/SPIM_2.c **** */
1022:.\Generated_Source\PSoC5/SPIM_2.c **** 
1023:.\Generated_Source\PSoC5/SPIM_2.c **** 
1024:.\Generated_Source\PSoC5/SPIM_2.c **** /*******************************************************************************
1025:.\Generated_Source\PSoC5/SPIM_2.c **** * Function Name: SPIM_2_EnableInt
1026:.\Generated_Source\PSoC5/SPIM_2.c **** ********************************************************************************
1027:.\Generated_Source\PSoC5/SPIM_2.c **** *
1028:.\Generated_Source\PSoC5/SPIM_2.c **** * Summary:
1029:.\Generated_Source\PSoC5/SPIM_2.c **** *  Enable internal interrupt generation.
1030:.\Generated_Source\PSoC5/SPIM_2.c **** *
1031:.\Generated_Source\PSoC5/SPIM_2.c **** * Parameters:
1032:.\Generated_Source\PSoC5/SPIM_2.c **** *  None.
1033:.\Generated_Source\PSoC5/SPIM_2.c **** *
1034:.\Generated_Source\PSoC5/SPIM_2.c **** * Return:
1035:.\Generated_Source\PSoC5/SPIM_2.c **** *  None.
1036:.\Generated_Source\PSoC5/SPIM_2.c **** *
1037:.\Generated_Source\PSoC5/SPIM_2.c **** * Theory:
1038:.\Generated_Source\PSoC5/SPIM_2.c **** *  Enable the internal interrupt output -or- the interrupt component itself.
1039:.\Generated_Source\PSoC5/SPIM_2.c **** *
1040:.\Generated_Source\PSoC5/SPIM_2.c **** *******************************************************************************/
1041:.\Generated_Source\PSoC5/SPIM_2.c **** void SPIM_2_EnableInt(void) 
1042:.\Generated_Source\PSoC5/SPIM_2.c **** {
 685              		.loc 1 1042 0
 686              		.cfi_startproc
 687              		@ args = 0, pretend = 0, frame = 0
 688              		@ frame_needed = 0, uses_anonymous_args = 0
 689              		@ link register save eliminated.
 690 0000 7047     		bx	lr
 691              		.cfi_endproc
 692              	.LFE20:
 693              		.size	SPIM_2_EnableInt, .-SPIM_2_EnableInt
 694 0002 00BF     		.section	.text.SPIM_2_DisableInt,"ax",%progbits
 695              		.align	2
 696              		.global	SPIM_2_DisableInt
 697              		.thumb
 698              		.thumb_func
 699              		.type	SPIM_2_DisableInt, %function
 700              	SPIM_2_DisableInt:
 701              	.LFB21:
1043:.\Generated_Source\PSoC5/SPIM_2.c ****     SPIM_2_EnableRxInt();
1044:.\Generated_Source\PSoC5/SPIM_2.c ****     SPIM_2_EnableTxInt();
1045:.\Generated_Source\PSoC5/SPIM_2.c **** }
1046:.\Generated_Source\PSoC5/SPIM_2.c **** 
1047:.\Generated_Source\PSoC5/SPIM_2.c **** 
1048:.\Generated_Source\PSoC5/SPIM_2.c **** /*******************************************************************************
1049:.\Generated_Source\PSoC5/SPIM_2.c **** * Function Name: SPIM_2_DisableInt
1050:.\Generated_Source\PSoC5/SPIM_2.c **** ********************************************************************************
ARM GAS  C:\Users\ericz\AppData\Local\Temp\ccgTCGw3.s 			page 32


1051:.\Generated_Source\PSoC5/SPIM_2.c **** *
1052:.\Generated_Source\PSoC5/SPIM_2.c **** * Summary:
1053:.\Generated_Source\PSoC5/SPIM_2.c **** *  Disable internal interrupt generation.
1054:.\Generated_Source\PSoC5/SPIM_2.c **** *
1055:.\Generated_Source\PSoC5/SPIM_2.c **** * Parameters:
1056:.\Generated_Source\PSoC5/SPIM_2.c **** *  None.
1057:.\Generated_Source\PSoC5/SPIM_2.c **** *
1058:.\Generated_Source\PSoC5/SPIM_2.c **** * Return:
1059:.\Generated_Source\PSoC5/SPIM_2.c **** *  None.
1060:.\Generated_Source\PSoC5/SPIM_2.c **** *
1061:.\Generated_Source\PSoC5/SPIM_2.c **** * Theory:
1062:.\Generated_Source\PSoC5/SPIM_2.c **** *  Disable the internal interrupt output -or- the interrupt component itself.
1063:.\Generated_Source\PSoC5/SPIM_2.c **** *
1064:.\Generated_Source\PSoC5/SPIM_2.c **** *******************************************************************************/
1065:.\Generated_Source\PSoC5/SPIM_2.c **** void SPIM_2_DisableInt(void) 
1066:.\Generated_Source\PSoC5/SPIM_2.c **** {
 702              		.loc 1 1066 0
 703              		.cfi_startproc
 704              		@ args = 0, pretend = 0, frame = 0
 705              		@ frame_needed = 0, uses_anonymous_args = 0
 706              		@ link register save eliminated.
 707 0000 7047     		bx	lr
 708              		.cfi_endproc
 709              	.LFE21:
 710              		.size	SPIM_2_DisableInt, .-SPIM_2_DisableInt
 711 0002 00BF     		.section	.text.SPIM_2_SetInterruptMode,"ax",%progbits
 712              		.align	2
 713              		.global	SPIM_2_SetInterruptMode
 714              		.thumb
 715              		.thumb_func
 716              		.type	SPIM_2_SetInterruptMode, %function
 717              	SPIM_2_SetInterruptMode:
 718              	.LFB22:
1067:.\Generated_Source\PSoC5/SPIM_2.c ****     SPIM_2_DisableTxInt();
1068:.\Generated_Source\PSoC5/SPIM_2.c ****     SPIM_2_DisableRxInt();
1069:.\Generated_Source\PSoC5/SPIM_2.c **** }
1070:.\Generated_Source\PSoC5/SPIM_2.c **** 
1071:.\Generated_Source\PSoC5/SPIM_2.c **** 
1072:.\Generated_Source\PSoC5/SPIM_2.c **** /*******************************************************************************
1073:.\Generated_Source\PSoC5/SPIM_2.c **** * Function Name: SPIM_2_SetInterruptMode
1074:.\Generated_Source\PSoC5/SPIM_2.c **** ********************************************************************************
1075:.\Generated_Source\PSoC5/SPIM_2.c **** *
1076:.\Generated_Source\PSoC5/SPIM_2.c **** * Summary:
1077:.\Generated_Source\PSoC5/SPIM_2.c **** *  Configure which status bits trigger an interrupt event.
1078:.\Generated_Source\PSoC5/SPIM_2.c **** *
1079:.\Generated_Source\PSoC5/SPIM_2.c **** * Parameters:
1080:.\Generated_Source\PSoC5/SPIM_2.c **** *  intSrc: An or'd combination of the desired status bit masks (defined in the
1081:.\Generated_Source\PSoC5/SPIM_2.c **** *  header file).
1082:.\Generated_Source\PSoC5/SPIM_2.c **** *
1083:.\Generated_Source\PSoC5/SPIM_2.c **** * Return:
1084:.\Generated_Source\PSoC5/SPIM_2.c **** *  None.
1085:.\Generated_Source\PSoC5/SPIM_2.c **** *
1086:.\Generated_Source\PSoC5/SPIM_2.c **** * Theory:
1087:.\Generated_Source\PSoC5/SPIM_2.c **** *  Enables the output of specific status bits to the interrupt controller.
1088:.\Generated_Source\PSoC5/SPIM_2.c **** *
1089:.\Generated_Source\PSoC5/SPIM_2.c **** *******************************************************************************/
1090:.\Generated_Source\PSoC5/SPIM_2.c **** void SPIM_2_SetInterruptMode(uint8 intSrc) 
ARM GAS  C:\Users\ericz\AppData\Local\Temp\ccgTCGw3.s 			page 33


1091:.\Generated_Source\PSoC5/SPIM_2.c **** {
 719              		.loc 1 1091 0
 720              		.cfi_startproc
 721              		@ args = 0, pretend = 0, frame = 0
 722              		@ frame_needed = 0, uses_anonymous_args = 0
 723              		@ link register save eliminated.
 724              	.LVL32:
1092:.\Generated_Source\PSoC5/SPIM_2.c ****     SPIM_2_TX_STATUS_MASK_REG  = (intSrc & ((uint8) ~SPIM_2_STS_SPI_IDLE));
 725              		.loc 1 1092 0
 726 0000 00F0EF02 		and	r2, r0, #239
 727 0004 024B     		ldr	r3, .L74
 728 0006 1A70     		strb	r2, [r3]
1093:.\Generated_Source\PSoC5/SPIM_2.c ****     SPIM_2_RX_STATUS_MASK_REG  =  intSrc;
 729              		.loc 1 1093 0
 730 0008 03F58173 		add	r3, r3, #258
 731 000c 1870     		strb	r0, [r3]
 732 000e 7047     		bx	lr
 733              	.L75:
 734              		.align	2
 735              	.L74:
 736 0010 88640040 		.word	1073767560
 737              		.cfi_endproc
 738              	.LFE22:
 739              		.size	SPIM_2_SetInterruptMode, .-SPIM_2_SetInterruptMode
 740              		.section	.text.SPIM_2_ReadStatus,"ax",%progbits
 741              		.align	2
 742              		.global	SPIM_2_ReadStatus
 743              		.thumb
 744              		.thumb_func
 745              		.type	SPIM_2_ReadStatus, %function
 746              	SPIM_2_ReadStatus:
 747              	.LFB23:
1094:.\Generated_Source\PSoC5/SPIM_2.c **** }
1095:.\Generated_Source\PSoC5/SPIM_2.c **** 
1096:.\Generated_Source\PSoC5/SPIM_2.c **** 
1097:.\Generated_Source\PSoC5/SPIM_2.c **** /*******************************************************************************
1098:.\Generated_Source\PSoC5/SPIM_2.c **** * Function Name: SPIM_2_ReadStatus
1099:.\Generated_Source\PSoC5/SPIM_2.c **** ********************************************************************************
1100:.\Generated_Source\PSoC5/SPIM_2.c **** *
1101:.\Generated_Source\PSoC5/SPIM_2.c **** * Summary:
1102:.\Generated_Source\PSoC5/SPIM_2.c **** *  Read the status register for the component.
1103:.\Generated_Source\PSoC5/SPIM_2.c **** *
1104:.\Generated_Source\PSoC5/SPIM_2.c **** * Parameters:
1105:.\Generated_Source\PSoC5/SPIM_2.c **** *  None.
1106:.\Generated_Source\PSoC5/SPIM_2.c **** *
1107:.\Generated_Source\PSoC5/SPIM_2.c **** * Return:
1108:.\Generated_Source\PSoC5/SPIM_2.c **** *  Contents of the status register.
1109:.\Generated_Source\PSoC5/SPIM_2.c **** *
1110:.\Generated_Source\PSoC5/SPIM_2.c **** * Global variables:
1111:.\Generated_Source\PSoC5/SPIM_2.c **** *  SPIM_2_swStatus - used to store in software status register,
1112:.\Generated_Source\PSoC5/SPIM_2.c **** *  modified every function call - resets to zero.
1113:.\Generated_Source\PSoC5/SPIM_2.c **** *
1114:.\Generated_Source\PSoC5/SPIM_2.c **** * Theory:
1115:.\Generated_Source\PSoC5/SPIM_2.c **** *  Allows the user and the API to read the status register for error detection
1116:.\Generated_Source\PSoC5/SPIM_2.c **** *  and flow control.
1117:.\Generated_Source\PSoC5/SPIM_2.c **** *
1118:.\Generated_Source\PSoC5/SPIM_2.c **** * Side Effects:
ARM GAS  C:\Users\ericz\AppData\Local\Temp\ccgTCGw3.s 			page 34


1119:.\Generated_Source\PSoC5/SPIM_2.c **** *  Clear status register of the component.
1120:.\Generated_Source\PSoC5/SPIM_2.c **** *
1121:.\Generated_Source\PSoC5/SPIM_2.c **** * Reentrant:
1122:.\Generated_Source\PSoC5/SPIM_2.c **** *  No.
1123:.\Generated_Source\PSoC5/SPIM_2.c **** *
1124:.\Generated_Source\PSoC5/SPIM_2.c **** *******************************************************************************/
1125:.\Generated_Source\PSoC5/SPIM_2.c **** uint8 SPIM_2_ReadStatus(void) 
1126:.\Generated_Source\PSoC5/SPIM_2.c **** {
 748              		.loc 1 1126 0
 749              		.cfi_startproc
 750              		@ args = 0, pretend = 0, frame = 0
 751              		@ frame_needed = 0, uses_anonymous_args = 0
 752              		@ link register save eliminated.
1127:.\Generated_Source\PSoC5/SPIM_2.c ****     uint8 tmpStatus;
1128:.\Generated_Source\PSoC5/SPIM_2.c **** 
1129:.\Generated_Source\PSoC5/SPIM_2.c ****     #if(SPIM_2_TX_SOFTWARE_BUF_ENABLED || SPIM_2_RX_SOFTWARE_BUF_ENABLED)
1130:.\Generated_Source\PSoC5/SPIM_2.c **** 
1131:.\Generated_Source\PSoC5/SPIM_2.c ****         SPIM_2_DisableInt();
1132:.\Generated_Source\PSoC5/SPIM_2.c **** 
1133:.\Generated_Source\PSoC5/SPIM_2.c ****         tmpStatus  = SPIM_2_GET_STATUS_RX(SPIM_2_swStatusRx);
1134:.\Generated_Source\PSoC5/SPIM_2.c ****         tmpStatus |= SPIM_2_GET_STATUS_TX(SPIM_2_swStatusTx);
1135:.\Generated_Source\PSoC5/SPIM_2.c ****         tmpStatus &= ((uint8) ~SPIM_2_STS_SPI_IDLE);
1136:.\Generated_Source\PSoC5/SPIM_2.c **** 
1137:.\Generated_Source\PSoC5/SPIM_2.c ****         SPIM_2_swStatusTx = 0u;
1138:.\Generated_Source\PSoC5/SPIM_2.c ****         SPIM_2_swStatusRx = 0u;
1139:.\Generated_Source\PSoC5/SPIM_2.c **** 
1140:.\Generated_Source\PSoC5/SPIM_2.c ****         SPIM_2_EnableInt();
1141:.\Generated_Source\PSoC5/SPIM_2.c **** 
1142:.\Generated_Source\PSoC5/SPIM_2.c ****     #else
1143:.\Generated_Source\PSoC5/SPIM_2.c **** 
1144:.\Generated_Source\PSoC5/SPIM_2.c ****         tmpStatus  = SPIM_2_RX_STATUS_REG;
 753              		.loc 1 1144 0
 754 0000 034B     		ldr	r3, .L77
 755 0002 1B78     		ldrb	r3, [r3]	@ zero_extendqisi2
 756              	.LVL33:
1145:.\Generated_Source\PSoC5/SPIM_2.c ****         tmpStatus |= SPIM_2_TX_STATUS_REG;
 757              		.loc 1 1145 0
 758 0004 034A     		ldr	r2, .L77+4
 759 0006 1078     		ldrb	r0, [r2]	@ zero_extendqisi2
 760 0008 1843     		orrs	r0, r0, r3
 761              	.LVL34:
1146:.\Generated_Source\PSoC5/SPIM_2.c ****         tmpStatus &= ((uint8) ~SPIM_2_STS_SPI_IDLE);
1147:.\Generated_Source\PSoC5/SPIM_2.c **** 
1148:.\Generated_Source\PSoC5/SPIM_2.c ****     #endif /* (SPIM_2_TX_SOFTWARE_BUF_ENABLED || SPIM_2_RX_SOFTWARE_BUF_ENABLED) */
1149:.\Generated_Source\PSoC5/SPIM_2.c **** 
1150:.\Generated_Source\PSoC5/SPIM_2.c ****     return(tmpStatus);
1151:.\Generated_Source\PSoC5/SPIM_2.c **** }
 762              		.loc 1 1151 0
 763 000a 00F0EF00 		and	r0, r0, #239
 764              	.LVL35:
 765 000e 7047     		bx	lr
 766              	.L78:
 767              		.align	2
 768              	.L77:
 769 0010 6A650040 		.word	1073767786
 770 0014 68640040 		.word	1073767528
 771              		.cfi_endproc
ARM GAS  C:\Users\ericz\AppData\Local\Temp\ccgTCGw3.s 			page 35


 772              	.LFE23:
 773              		.size	SPIM_2_ReadStatus, .-SPIM_2_ReadStatus
 774              		.comm	SPIM_2_swStatusRx,1,1
 775              		.comm	SPIM_2_swStatusTx,1,1
 776              		.global	SPIM_2_initVar
 777              		.bss
 778              		.set	.LANCHOR0,. + 0
 779              		.type	SPIM_2_initVar, %object
 780              		.size	SPIM_2_initVar, 1
 781              	SPIM_2_initVar:
 782 0000 00       		.space	1
 783              		.text
 784              	.Letext0:
 785              		.file 2 ".\\Generated_Source\\PSoC5\\cytypes.h"
 786              		.file 3 ".\\Generated_Source\\PSoC5\\SPIM_2_IntClock.h"
 787              		.file 4 ".\\Generated_Source\\PSoC5\\CyLib.h"